
C:\Users\caleb\AppData\Local\Temp\arduino\sketches\32D2EA955AE1633E1482F8C58CE80F09/Psx_To_DB-15_REMAP_AF.ino.elf:     file format elf32-avr


Disassembly of section .text:

00000000 <__vectors>:
__vectors():
       0:	4b c0       	rjmp	.+150    	; 0x98 <__ctors_end>
       2:	65 c0       	rjmp	.+202    	; 0xce <__bad_interrupt>
       4:	64 c0       	rjmp	.+200    	; 0xce <__bad_interrupt>
       6:	63 c0       	rjmp	.+198    	; 0xce <__bad_interrupt>
       8:	62 c0       	rjmp	.+196    	; 0xce <__bad_interrupt>
       a:	61 c0       	rjmp	.+194    	; 0xce <__bad_interrupt>
       c:	60 c0       	rjmp	.+192    	; 0xce <__bad_interrupt>
       e:	5f c0       	rjmp	.+190    	; 0xce <__bad_interrupt>
      10:	5e c0       	rjmp	.+188    	; 0xce <__bad_interrupt>
      12:	5d c0       	rjmp	.+186    	; 0xce <__bad_interrupt>
      14:	5c c0       	rjmp	.+184    	; 0xce <__bad_interrupt>
      16:	5b c0       	rjmp	.+182    	; 0xce <__bad_interrupt>
      18:	5a c0       	rjmp	.+180    	; 0xce <__bad_interrupt>
      1a:	59 c0       	rjmp	.+178    	; 0xce <__bad_interrupt>
      1c:	58 c0       	rjmp	.+176    	; 0xce <__bad_interrupt>
      1e:	57 c0       	rjmp	.+174    	; 0xce <__bad_interrupt>
      20:	b4 c1       	rjmp	.+872    	; 0x38a <__vector_16>
      22:	55 c0       	rjmp	.+170    	; 0xce <__bad_interrupt>
      24:	54 c0       	rjmp	.+168    	; 0xce <__bad_interrupt>
      26:	53 c0       	rjmp	.+166    	; 0xce <__bad_interrupt>
      28:	52 c0       	rjmp	.+164    	; 0xce <__bad_interrupt>
      2a:	51 c0       	rjmp	.+162    	; 0xce <__bad_interrupt>
      2c:	50 c0       	rjmp	.+160    	; 0xce <__bad_interrupt>
      2e:	4f c0       	rjmp	.+158    	; 0xce <__bad_interrupt>
      30:	4e c0       	rjmp	.+156    	; 0xce <__bad_interrupt>
      32:	4d c0       	rjmp	.+154    	; 0xce <__bad_interrupt>

00000034 <__trampolines_end>:
__trampolines_start():
      34:	00 00       	nop
      36:	00 00       	nop
      38:	24 00       	.word	0x0024	; ????
      3a:	27 00       	.word	0x0027	; ????
      3c:	2a 00       	.word	0x002a	; ????

0000003e <port_to_output_PGM>:
      3e:	00 00 00 00 25 00 28 00 2b 00                       ....%.(.+.

00000048 <port_to_input_PGM>:
      48:	00 00 00 00 23 00 26 00 29 00                       ....#.&.).

00000052 <digital_pin_to_port_PGM>:
      52:	04 04 04 04 04 04 04 04 02 02 02 02 02 02 03 03     ................
      62:	03 03 03 03 02 02 03                                .......

00000069 <digital_pin_to_bit_mask_PGM>:
      69:	01 02 04 08 10 20 40 80 01 02 04 08 10 20 01 02     ..... @...... ..
      79:	04 08 10 20 40 80 40                                ... @.@

00000080 <digital_pin_to_timer_PGM>:
      80:	00 00 00 09 00 03 02 00 00 04 05 08 00 00 00 00     ................
	...

00000098 <__ctors_end>:
__dtors_end():
      98:	11 24       	eor	r1, r1
      9a:	1f be       	out	0x3f, r1	; 63
      9c:	cf ef       	ldi	r28, 0xFF	; 255
      9e:	d4 e0       	ldi	r29, 0x04	; 4
      a0:	de bf       	out	0x3e, r29	; 62
      a2:	cd bf       	out	0x3d, r28	; 61

000000a4 <__do_copy_data>:
__do_copy_data():
/home/jenkins-mingw32/workspace/avr-gcc-staging/label/Ubuntu14.04x64-mingw32/gcc-build/avr/avr4/libgcc/../../../../gcc/libgcc/config/avr/lib1funcs.S:2409
      a4:	11 e0       	ldi	r17, 0x01	; 1
/home/jenkins-mingw32/workspace/avr-gcc-staging/label/Ubuntu14.04x64-mingw32/gcc-build/avr/avr4/libgcc/../../../../gcc/libgcc/config/avr/lib1funcs.S:2410
      a6:	a0 e0       	ldi	r26, 0x00	; 0
/home/jenkins-mingw32/workspace/avr-gcc-staging/label/Ubuntu14.04x64-mingw32/gcc-build/avr/avr4/libgcc/../../../../gcc/libgcc/config/avr/lib1funcs.S:2411
      a8:	b1 e0       	ldi	r27, 0x01	; 1
/home/jenkins-mingw32/workspace/avr-gcc-staging/label/Ubuntu14.04x64-mingw32/gcc-build/avr/avr4/libgcc/../../../../gcc/libgcc/config/avr/lib1funcs.S:2412
      aa:	e0 e6       	ldi	r30, 0x60	; 96
/home/jenkins-mingw32/workspace/avr-gcc-staging/label/Ubuntu14.04x64-mingw32/gcc-build/avr/avr4/libgcc/../../../../gcc/libgcc/config/avr/lib1funcs.S:2413
      ac:	fb e1       	ldi	r31, 0x1B	; 27
/home/jenkins-mingw32/workspace/avr-gcc-staging/label/Ubuntu14.04x64-mingw32/gcc-build/avr/avr4/libgcc/../../../../gcc/libgcc/config/avr/lib1funcs.S:2414
      ae:	02 c0       	rjmp	.+4      	; 0xb4 <__do_copy_data+0x10>
/home/jenkins-mingw32/workspace/avr-gcc-staging/label/Ubuntu14.04x64-mingw32/gcc-build/avr/avr4/libgcc/../../../../gcc/libgcc/config/avr/lib1funcs.S:2417
      b0:	05 90       	lpm	r0, Z+
/home/jenkins-mingw32/workspace/avr-gcc-staging/label/Ubuntu14.04x64-mingw32/gcc-build/avr/avr4/libgcc/../../../../gcc/libgcc/config/avr/lib1funcs.S:2422
      b2:	0d 92       	st	X+, r0
/home/jenkins-mingw32/workspace/avr-gcc-staging/label/Ubuntu14.04x64-mingw32/gcc-build/avr/avr4/libgcc/../../../../gcc/libgcc/config/avr/lib1funcs.S:2424
      b4:	ac 30       	cpi	r26, 0x0C	; 12
/home/jenkins-mingw32/workspace/avr-gcc-staging/label/Ubuntu14.04x64-mingw32/gcc-build/avr/avr4/libgcc/../../../../gcc/libgcc/config/avr/lib1funcs.S:2425
      b6:	b1 07       	cpc	r27, r17
/home/jenkins-mingw32/workspace/avr-gcc-staging/label/Ubuntu14.04x64-mingw32/gcc-build/avr/avr4/libgcc/../../../../gcc/libgcc/config/avr/lib1funcs.S:2426
      b8:	d9 f7       	brne	.-10     	; 0xb0 <__do_copy_data+0xc>

000000ba <__do_clear_bss>:
__do_clear_bss():
/home/jenkins-mingw32/workspace/avr-gcc-staging/label/Ubuntu14.04x64-mingw32/gcc-build/avr/avr4/libgcc/../../../../gcc/libgcc/config/avr/lib1funcs.S:2441
      ba:	21 e0       	ldi	r18, 0x01	; 1
/home/jenkins-mingw32/workspace/avr-gcc-staging/label/Ubuntu14.04x64-mingw32/gcc-build/avr/avr4/libgcc/../../../../gcc/libgcc/config/avr/lib1funcs.S:2442
      bc:	ac e0       	ldi	r26, 0x0C	; 12
/home/jenkins-mingw32/workspace/avr-gcc-staging/label/Ubuntu14.04x64-mingw32/gcc-build/avr/avr4/libgcc/../../../../gcc/libgcc/config/avr/lib1funcs.S:2443
      be:	b1 e0       	ldi	r27, 0x01	; 1
/home/jenkins-mingw32/workspace/avr-gcc-staging/label/Ubuntu14.04x64-mingw32/gcc-build/avr/avr4/libgcc/../../../../gcc/libgcc/config/avr/lib1funcs.S:2444
      c0:	01 c0       	rjmp	.+2      	; 0xc4 <.do_clear_bss_start>

000000c2 <.do_clear_bss_loop>:
/home/jenkins-mingw32/workspace/avr-gcc-staging/label/Ubuntu14.04x64-mingw32/gcc-build/avr/avr4/libgcc/../../../../gcc/libgcc/config/avr/lib1funcs.S:2446
      c2:	1d 92       	st	X+, r1

000000c4 <.do_clear_bss_start>:
/home/jenkins-mingw32/workspace/avr-gcc-staging/label/Ubuntu14.04x64-mingw32/gcc-build/avr/avr4/libgcc/../../../../gcc/libgcc/config/avr/lib1funcs.S:2448
      c4:	af 38       	cpi	r26, 0x8F	; 143
/home/jenkins-mingw32/workspace/avr-gcc-staging/label/Ubuntu14.04x64-mingw32/gcc-build/avr/avr4/libgcc/../../../../gcc/libgcc/config/avr/lib1funcs.S:2449
      c6:	b2 07       	cpc	r27, r18
/home/jenkins-mingw32/workspace/avr-gcc-staging/label/Ubuntu14.04x64-mingw32/gcc-build/avr/avr4/libgcc/../../../../gcc/libgcc/config/avr/lib1funcs.S:2450
      c8:	e1 f7       	brne	.-8      	; 0xc2 <.do_clear_bss_loop>
.do_clear_bss_start():
      ca:	a9 d1       	rcall	.+850    	; 0x41e <main>
      cc:	47 cd       	rjmp	.-1394   	; 0xfffffb5c <__eeprom_end+0xff7efb5c>

000000ce <__bad_interrupt>:
__vector_22():
      ce:	98 cf       	rjmp	.-208    	; 0x0 <__vectors>

000000d0 <turnOffPWM>:
turnOffPWM():
C:\Users\caleb\AppData\Local\Arduino15\packages\MiniCore\hardware\avr\3.0.1\cores\MCUdude_corefiles/wiring_digital.c:77
//
//static inline void turnOffPWM(uint8_t timer) __attribute__ ((always_inline));
//static inline void turnOffPWM(uint8_t timer)
static void turnOffPWM(uint8_t timer)
{
  switch (timer)
      d0:	84 30       	cpi	r24, 0x04	; 4
      d2:	81 f0       	breq	.+32     	; 0xf4 <turnOffPWM+0x24>
      d4:	28 f4       	brcc	.+10     	; 0xe0 <turnOffPWM+0x10>
      d6:	82 30       	cpi	r24, 0x02	; 2
      d8:	e9 f0       	breq	.+58     	; 0x114 <turnOffPWM+0x44>
      da:	83 30       	cpi	r24, 0x03	; 3
      dc:	f9 f0       	breq	.+62     	; 0x11c <turnOffPWM+0x4c>
      de:	08 95       	ret
      e0:	88 30       	cpi	r24, 0x08	; 8
      e2:	71 f0       	breq	.+28     	; 0x100 <turnOffPWM+0x30>
      e4:	89 30       	cpi	r24, 0x09	; 9
      e6:	91 f0       	breq	.+36     	; 0x10c <turnOffPWM+0x3c>
      e8:	85 30       	cpi	r24, 0x05	; 5
      ea:	b9 f4       	brne	.+46     	; 0x11a <turnOffPWM+0x4a>
C:\Users\caleb\AppData\Local\Arduino15\packages\MiniCore\hardware\avr\3.0.1\cores\MCUdude_corefiles/wiring_digital.c:87
        TCCR1A &= ~_BV(COM1A1);
        break;
    #endif
    #if defined(TCCR1A) && defined(COM1B1)
      case TIMER1B:
        TCCR1A &= ~_BV(COM1B1);
      ec:	80 91 80 00 	lds	r24, 0x0080	; 0x800080 <__DATA_REGION_ORIGIN__+0x20>
      f0:	8f 7d       	andi	r24, 0xDF	; 223
      f2:	03 c0       	rjmp	.+6      	; 0xfa <turnOffPWM+0x2a>
C:\Users\caleb\AppData\Local\Arduino15\packages\MiniCore\hardware\avr\3.0.1\cores\MCUdude_corefiles/wiring_digital.c:82
  switch (timer)
  {
    // Timer1
    #if defined(TCCR1A) && defined(COM1A1)
      case TIMER1A:
        TCCR1A &= ~_BV(COM1A1);
      f4:	80 91 80 00 	lds	r24, 0x0080	; 0x800080 <__DATA_REGION_ORIGIN__+0x20>
      f8:	8f 77       	andi	r24, 0x7F	; 127
C:\Users\caleb\AppData\Local\Arduino15\packages\MiniCore\hardware\avr\3.0.1\cores\MCUdude_corefiles/wiring_digital.c:87
        break;
    #endif
    #if defined(TCCR1A) && defined(COM1B1)
      case TIMER1B:
        TCCR1A &= ~_BV(COM1B1);
      fa:	80 93 80 00 	sts	0x0080, r24	; 0x800080 <__DATA_REGION_ORIGIN__+0x20>
      fe:	08 95       	ret
C:\Users\caleb\AppData\Local\Arduino15\packages\MiniCore\hardware\avr\3.0.1\cores\MCUdude_corefiles/wiring_digital.c:104
        TCCR2 &= ~_BV(COM21);
        break;
    #endif
    #if defined(TCCR2A) && defined(COM2A1)
      case TIMER2A:
        TCCR2A &= ~_BV(COM2A1);
     100:	80 91 b0 00 	lds	r24, 0x00B0	; 0x8000b0 <__DATA_REGION_ORIGIN__+0x50>
     104:	8f 77       	andi	r24, 0x7F	; 127
C:\Users\caleb\AppData\Local\Arduino15\packages\MiniCore\hardware\avr\3.0.1\cores\MCUdude_corefiles/wiring_digital.c:109
        break;
    #endif
    #if defined(TCCR2A) && defined(COM2B1)
      case TIMER2B:
        TCCR2A &= ~_BV(COM2B1);
     106:	80 93 b0 00 	sts	0x00B0, r24	; 0x8000b0 <__DATA_REGION_ORIGIN__+0x50>
     10a:	08 95       	ret
     10c:	80 91 b0 00 	lds	r24, 0x00B0	; 0x8000b0 <__DATA_REGION_ORIGIN__+0x50>
     110:	8f 7d       	andi	r24, 0xDF	; 223
     112:	f9 cf       	rjmp	.-14     	; 0x106 <turnOffPWM+0x36>
C:\Users\caleb\AppData\Local\Arduino15\packages\MiniCore\hardware\avr\3.0.1\cores\MCUdude_corefiles/wiring_digital.c:176
        TCCR0 &= ~_BV(COM01);
        break;
    #endif
    #if defined(TCCR0A) && defined(COM0A1)
      case TIMER0A:
        TCCR0A &= ~_BV(COM0A1);
     114:	84 b5       	in	r24, 0x24	; 36
     116:	8f 77       	andi	r24, 0x7F	; 127
C:\Users\caleb\AppData\Local\Arduino15\packages\MiniCore\hardware\avr\3.0.1\cores\MCUdude_corefiles/wiring_digital.c:181
        break;
    #endif
    #if defined(TCCR0A) && defined(COM0B1)
      case TIMER0B:
        TCCR0A &= ~_BV(COM0B1);
     118:	84 bd       	out	0x24, r24	; 36
C:\Users\caleb\AppData\Local\Arduino15\packages\MiniCore\hardware\avr\3.0.1\cores\MCUdude_corefiles/wiring_digital.c:185
        break;
    #endif
  }
}
     11a:	08 95       	ret
C:\Users\caleb\AppData\Local\Arduino15\packages\MiniCore\hardware\avr\3.0.1\cores\MCUdude_corefiles/wiring_digital.c:181
        TCCR0A &= ~_BV(COM0A1);
        break;
    #endif
    #if defined(TCCR0A) && defined(COM0B1)
      case TIMER0B:
        TCCR0A &= ~_BV(COM0B1);
     11c:	84 b5       	in	r24, 0x24	; 36
     11e:	8f 7d       	andi	r24, 0xDF	; 223
     120:	fb cf       	rjmp	.-10     	; 0x118 <turnOffPWM+0x48>

00000122 <digitalWrite>:
digitalWrite():
C:\Users\caleb\AppData\Local\Arduino15\packages\MiniCore\hardware\avr\3.0.1\cores\MCUdude_corefiles/wiring_digital.c:188
    #endif
  }
}

void digitalWrite(uint8_t pin, uint8_t val)
{
     122:	1f 93       	push	r17
     124:	cf 93       	push	r28
     126:	df 93       	push	r29
C:\Users\caleb\AppData\Local\Arduino15\packages\MiniCore\hardware\avr\3.0.1\cores\MCUdude_corefiles/wiring_digital.c:189
  uint8_t timer = digitalPinToTimer(pin);
     128:	28 2f       	mov	r18, r24
     12a:	30 e0       	ldi	r19, 0x00	; 0
     12c:	f9 01       	movw	r30, r18
     12e:	e0 58       	subi	r30, 0x80	; 128
     130:	ff 4f       	sbci	r31, 0xFF	; 255
     132:	84 91       	lpm	r24, Z
C:\Users\caleb\AppData\Local\Arduino15\packages\MiniCore\hardware\avr\3.0.1\cores\MCUdude_corefiles/wiring_digital.c:190
  uint8_t bit = digitalPinToBitMask(pin);
     134:	f9 01       	movw	r30, r18
     136:	e7 59       	subi	r30, 0x97	; 151
     138:	ff 4f       	sbci	r31, 0xFF	; 255
     13a:	d4 91       	lpm	r29, Z
C:\Users\caleb\AppData\Local\Arduino15\packages\MiniCore\hardware\avr\3.0.1\cores\MCUdude_corefiles/wiring_digital.c:191
  uint8_t port = digitalPinToPort(pin);
     13c:	f9 01       	movw	r30, r18
     13e:	ee 5a       	subi	r30, 0xAE	; 174
     140:	ff 4f       	sbci	r31, 0xFF	; 255
     142:	c4 91       	lpm	r28, Z
C:\Users\caleb\AppData\Local\Arduino15\packages\MiniCore\hardware\avr\3.0.1\cores\MCUdude_corefiles/wiring_digital.c:194
  volatile uint8_t *out;

  if (port == NOT_A_PIN) return;
     144:	cc 23       	and	r28, r28
     146:	a1 f0       	breq	.+40     	; 0x170 <digitalWrite+0x4e>
     148:	16 2f       	mov	r17, r22
C:\Users\caleb\AppData\Local\Arduino15\packages\MiniCore\hardware\avr\3.0.1\cores\MCUdude_corefiles/wiring_digital.c:198

  // If the pin that support PWM output, we need to turn it off
  // before doing a digital write.
  if (timer != NOT_ON_TIMER) turnOffPWM(timer);
     14a:	81 11       	cpse	r24, r1
     14c:	c1 df       	rcall	.-126    	; 0xd0 <turnOffPWM>
C:\Users\caleb\AppData\Local\Arduino15\packages\MiniCore\hardware\avr\3.0.1\cores\MCUdude_corefiles/wiring_digital.c:200

  out = portOutputRegister(port);
     14e:	ec 2f       	mov	r30, r28
     150:	f0 e0       	ldi	r31, 0x00	; 0
     152:	ee 0f       	add	r30, r30
     154:	ff 1f       	adc	r31, r31
     156:	e2 5c       	subi	r30, 0xC2	; 194
     158:	ff 4f       	sbci	r31, 0xFF	; 255
     15a:	a5 91       	lpm	r26, Z+
     15c:	b4 91       	lpm	r27, Z
C:\Users\caleb\AppData\Local\Arduino15\packages\MiniCore\hardware\avr\3.0.1\cores\MCUdude_corefiles/wiring_digital.c:202

  uint8_t oldSREG = SREG;
     15e:	8f b7       	in	r24, 0x3f	; 63
C:\Users\caleb\AppData\Local\Arduino15\packages\MiniCore\hardware\avr\3.0.1\cores\MCUdude_corefiles/wiring_digital.c:203
  cli();
     160:	f8 94       	cli
C:\Users\caleb\AppData\Local\Arduino15\packages\MiniCore\hardware\avr\3.0.1\cores\MCUdude_corefiles/wiring_digital.c:206

  if (val == LOW) {
    *out &= ~bit;
     162:	ec 91       	ld	r30, X
C:\Users\caleb\AppData\Local\Arduino15\packages\MiniCore\hardware\avr\3.0.1\cores\MCUdude_corefiles/wiring_digital.c:205
  out = portOutputRegister(port);

  uint8_t oldSREG = SREG;
  cli();

  if (val == LOW) {
     164:	11 11       	cpse	r17, r1
     166:	08 c0       	rjmp	.+16     	; 0x178 <digitalWrite+0x56>
C:\Users\caleb\AppData\Local\Arduino15\packages\MiniCore\hardware\avr\3.0.1\cores\MCUdude_corefiles/wiring_digital.c:206
    *out &= ~bit;
     168:	d0 95       	com	r29
     16a:	de 23       	and	r29, r30
C:\Users\caleb\AppData\Local\Arduino15\packages\MiniCore\hardware\avr\3.0.1\cores\MCUdude_corefiles/wiring_digital.c:208
  } else {
    *out |= bit;
     16c:	dc 93       	st	X, r29
C:\Users\caleb\AppData\Local\Arduino15\packages\MiniCore\hardware\avr\3.0.1\cores\MCUdude_corefiles/wiring_digital.c:211
  }

  SREG = oldSREG;
     16e:	8f bf       	out	0x3f, r24	; 63
C:\Users\caleb\AppData\Local\Arduino15\packages\MiniCore\hardware\avr\3.0.1\cores\MCUdude_corefiles/wiring_digital.c:212
}
     170:	df 91       	pop	r29
     172:	cf 91       	pop	r28
     174:	1f 91       	pop	r17
     176:	08 95       	ret
C:\Users\caleb\AppData\Local\Arduino15\packages\MiniCore\hardware\avr\3.0.1\cores\MCUdude_corefiles/wiring_digital.c:208
  cli();

  if (val == LOW) {
    *out &= ~bit;
  } else {
    *out |= bit;
     178:	de 2b       	or	r29, r30
     17a:	f8 cf       	rjmp	.-16     	; 0x16c <digitalWrite+0x4a>

0000017c <pinMode>:
pinMode():
C:\Users\caleb\AppData\Local\Arduino15\packages\MiniCore\hardware\avr\3.0.1\cores\MCUdude_corefiles/wiring_digital.c:30
#define ARDUINO_MAIN
#include "wiring_private.h"
#include "pins_arduino.h"

void pinMode(uint8_t pin, uint8_t mode)
{
     17c:	cf 93       	push	r28
     17e:	df 93       	push	r29
C:\Users\caleb\AppData\Local\Arduino15\packages\MiniCore\hardware\avr\3.0.1\cores\MCUdude_corefiles/wiring_digital.c:31
  uint8_t bit = digitalPinToBitMask(pin);
     180:	90 e0       	ldi	r25, 0x00	; 0
     182:	fc 01       	movw	r30, r24
     184:	e7 59       	subi	r30, 0x97	; 151
     186:	ff 4f       	sbci	r31, 0xFF	; 255
     188:	24 91       	lpm	r18, Z
C:\Users\caleb\AppData\Local\Arduino15\packages\MiniCore\hardware\avr\3.0.1\cores\MCUdude_corefiles/wiring_digital.c:32
  uint8_t port = digitalPinToPort(pin);
     18a:	8e 5a       	subi	r24, 0xAE	; 174
     18c:	9f 4f       	sbci	r25, 0xFF	; 255
     18e:	fc 01       	movw	r30, r24
     190:	84 91       	lpm	r24, Z
C:\Users\caleb\AppData\Local\Arduino15\packages\MiniCore\hardware\avr\3.0.1\cores\MCUdude_corefiles/wiring_digital.c:35
  volatile uint8_t *reg, *out;

  if (port == NOT_A_PIN) return;
     192:	88 23       	and	r24, r24
     194:	d1 f0       	breq	.+52     	; 0x1ca <pinMode+0x4e>
C:\Users\caleb\AppData\Local\Arduino15\packages\MiniCore\hardware\avr\3.0.1\cores\MCUdude_corefiles/wiring_digital.c:38

  // JWS: can I let the optimizer do this?
  reg = portModeRegister(port);
     196:	90 e0       	ldi	r25, 0x00	; 0
     198:	88 0f       	add	r24, r24
     19a:	99 1f       	adc	r25, r25
     19c:	fc 01       	movw	r30, r24
     19e:	ec 5c       	subi	r30, 0xCC	; 204
     1a0:	ff 4f       	sbci	r31, 0xFF	; 255
     1a2:	a5 91       	lpm	r26, Z+
     1a4:	b4 91       	lpm	r27, Z
C:\Users\caleb\AppData\Local\Arduino15\packages\MiniCore\hardware\avr\3.0.1\cores\MCUdude_corefiles/wiring_digital.c:39
  out = portOutputRegister(port);
     1a6:	fc 01       	movw	r30, r24
     1a8:	e2 5c       	subi	r30, 0xC2	; 194
     1aa:	ff 4f       	sbci	r31, 0xFF	; 255
     1ac:	c5 91       	lpm	r28, Z+
     1ae:	d4 91       	lpm	r29, Z
C:\Users\caleb\AppData\Local\Arduino15\packages\MiniCore\hardware\avr\3.0.1\cores\MCUdude_corefiles/wiring_digital.c:41

  if (mode == INPUT) { 
     1b0:	61 11       	cpse	r22, r1
     1b2:	0e c0       	rjmp	.+28     	; 0x1d0 <pinMode+0x54>
C:\Users\caleb\AppData\Local\Arduino15\packages\MiniCore\hardware\avr\3.0.1\cores\MCUdude_corefiles/wiring_digital.c:42
    uint8_t oldSREG = SREG;
     1b4:	9f b7       	in	r25, 0x3f	; 63
C:\Users\caleb\AppData\Local\Arduino15\packages\MiniCore\hardware\avr\3.0.1\cores\MCUdude_corefiles/wiring_digital.c:43
    cli();
     1b6:	f8 94       	cli
C:\Users\caleb\AppData\Local\Arduino15\packages\MiniCore\hardware\avr\3.0.1\cores\MCUdude_corefiles/wiring_digital.c:44
    *reg &= ~bit;
     1b8:	8c 91       	ld	r24, X
     1ba:	e2 2f       	mov	r30, r18
     1bc:	e0 95       	com	r30
     1be:	8e 23       	and	r24, r30
     1c0:	8c 93       	st	X, r24
C:\Users\caleb\AppData\Local\Arduino15\packages\MiniCore\hardware\avr\3.0.1\cores\MCUdude_corefiles/wiring_digital.c:45
    *out &= ~bit;
     1c2:	28 81       	ld	r18, Y
     1c4:	e2 23       	and	r30, r18
     1c6:	e8 83       	st	Y, r30
C:\Users\caleb\AppData\Local\Arduino15\packages\MiniCore\hardware\avr\3.0.1\cores\MCUdude_corefiles/wiring_digital.c:46
    SREG = oldSREG;
     1c8:	9f bf       	out	0x3f, r25	; 63
C:\Users\caleb\AppData\Local\Arduino15\packages\MiniCore\hardware\avr\3.0.1\cores\MCUdude_corefiles/wiring_digital.c:59
    uint8_t oldSREG = SREG;
    cli();
    *reg |= bit;
    SREG = oldSREG;
  }
}
     1ca:	df 91       	pop	r29
     1cc:	cf 91       	pop	r28
     1ce:	08 95       	ret
C:\Users\caleb\AppData\Local\Arduino15\packages\MiniCore\hardware\avr\3.0.1\cores\MCUdude_corefiles/wiring_digital.c:54
    cli();
    *reg &= ~bit;
    *out |= bit;
    SREG = oldSREG;
  } else {
    uint8_t oldSREG = SREG;
     1d0:	8f b7       	in	r24, 0x3f	; 63
C:\Users\caleb\AppData\Local\Arduino15\packages\MiniCore\hardware\avr\3.0.1\cores\MCUdude_corefiles/wiring_digital.c:55
    cli();
     1d2:	f8 94       	cli
C:\Users\caleb\AppData\Local\Arduino15\packages\MiniCore\hardware\avr\3.0.1\cores\MCUdude_corefiles/wiring_digital.c:56
    *reg |= bit;
     1d4:	ec 91       	ld	r30, X
     1d6:	e2 2b       	or	r30, r18
     1d8:	ec 93       	st	X, r30
C:\Users\caleb\AppData\Local\Arduino15\packages\MiniCore\hardware\avr\3.0.1\cores\MCUdude_corefiles/wiring_digital.c:57
    SREG = oldSREG;
     1da:	8f bf       	out	0x3f, r24	; 63
     1dc:	f6 cf       	rjmp	.-20     	; 0x1ca <pinMode+0x4e>

000001de <delayMicroseconds>:
delayMicroseconds():
C:\Users\caleb\AppData\Local\Arduino15\packages\MiniCore\hardware\avr\3.0.1\cores\MCUdude_corefiles/wiring.c:761
              // 2 cycles to jump back to delay cycle.
  }

#elif F_CPU >= 8000000L
  // for the 8 MHz clock
  __asm__ __volatile__ (
     1de:	00 00       	nop
     1e0:	00 00       	nop
C:\Users\caleb\AppData\Local\Arduino15\packages\MiniCore\hardware\avr\3.0.1\cores\MCUdude_corefiles/wiring.c:767
    "nop" "\n\t"
    "nop"); //just waiting 2 cycles

  // for a 1 and 2 microsecond delay, simply return.  the overhead
  // of the function call takes 16 (18) cycles, which is 2us
  if (us <= 2) return; // = 3 cycles, (4 when true)
     1e2:	83 30       	cpi	r24, 0x03	; 3
     1e4:	91 05       	cpc	r25, r1
     1e6:	28 f0       	brcs	.+10     	; 0x1f2 <delayMicroseconds+0x14>
C:\Users\caleb\AppData\Local\Arduino15\packages\MiniCore\hardware\avr\3.0.1\cores\MCUdude_corefiles/wiring.c:772

  // the following loop takes 1/2 of a microsecond (4 cycles)
  // per iteration, so execute it twice for each microsecond of
  // delay requested.
  us <<= 1; //x2 us, = 2 cycles
     1e8:	88 0f       	add	r24, r24
     1ea:	99 1f       	adc	r25, r25
C:\Users\caleb\AppData\Local\Arduino15\packages\MiniCore\hardware\avr\3.0.1\cores\MCUdude_corefiles/wiring.c:777

  // account for the time taken in the preceeding commands.
  // we just burned 19 (21) cycles above, remove 5, (5*4=20)
  // us is at least 6 so we can substract 5
  us -= 5; // = 2 cycles
     1ec:	05 97       	sbiw	r24, 0x05	; 5
C:\Users\caleb\AppData\Local\Arduino15\packages\MiniCore\hardware\avr\3.0.1\cores\MCUdude_corefiles/wiring.c:929
  us >>= 2; // us div 4, = 4 cycles

#endif

  // busy wait
  __asm__ __volatile__ (
     1ee:	01 97       	sbiw	r24, 0x01	; 1
     1f0:	f1 f7       	brne	.-4      	; 0x1ee <delayMicroseconds+0x10>
C:\Users\caleb\AppData\Local\Arduino15\packages\MiniCore\hardware\avr\3.0.1\cores\MCUdude_corefiles/wiring.c:939
    "   brne 1b"                     // 2 cycles
    : /* no outputs */
    : "w" (us)
  );
  // return = 4 cycles
}
     1f2:	08 95       	ret

000001f4 <Psx::shift(unsigned char) [clone .constprop.2]>:
_ZN3Psx5shiftEh.constprop.2():
c:\Users\caleb\Dropbox\My PC (DESKTOP-ET1MHVE)\Documents\Arduino\libraries\arduino-psx-master/Psx.cpp:31

Psx::Psx()
{
}

byte Psx::shift(byte _dataOut)							// Does the actual shifting, both in and out simultaneously
     1f4:	ef 92       	push	r14
     1f6:	ff 92       	push	r15
     1f8:	0f 93       	push	r16
     1fa:	1f 93       	push	r17
     1fc:	cf 93       	push	r28
     1fe:	df 93       	push	r29
c:\Users\caleb\Dropbox\My PC (DESKTOP-ET1MHVE)\Documents\Arduino\libraries\arduino-psx-master/Psx.cpp:33
{
	_temp = 0;
     200:	10 92 89 01 	sts	0x0189, r1	; 0x800189 <Psx+0x6>
c:\Users\caleb\Dropbox\My PC (DESKTOP-ET1MHVE)\Documents\Arduino\libraries\arduino-psx-master/Psx.cpp:34
	_dataIn = 0;
     204:	10 92 8a 01 	sts	0x018A, r1	; 0x80018a <Psx+0x7>
c:\Users\caleb\Dropbox\My PC (DESKTOP-ET1MHVE)\Documents\Arduino\libraries\arduino-psx-master/Psx.cpp:36

	for (_i = 0; _i <= 7; _i++)
     208:	10 92 88 01 	sts	0x0188, r1	; 0x800188 <Psx+0x5>
c:\Users\caleb\Dropbox\My PC (DESKTOP-ET1MHVE)\Documents\Arduino\libraries\arduino-psx-master/Psx.cpp:40
	{
		
		
		if ( _dataOut & (1 << _i) ) digitalWrite(_cmndPin, HIGH);	// Writes out the _dataOut bits
     20c:	c8 2f       	mov	r28, r24
     20e:	d0 e0       	ldi	r29, 0x00	; 0
c:\Users\caleb\Dropbox\My PC (DESKTOP-ET1MHVE)\Documents\Arduino\libraries\arduino-psx-master/Psx.cpp:50
		delayMicroseconds(_delay);

		_temp = digitalRead(_dataPin);					// Reads the data pin
		if (_temp)
		{
			_dataIn = _dataIn | (B10000000 >> _i);		// Shifts the read data into _dataIn
     210:	00 e8       	ldi	r16, 0x80	; 128
     212:	10 e0       	ldi	r17, 0x00	; 0
c:\Users\caleb\Dropbox\My PC (DESKTOP-ET1MHVE)\Documents\Arduino\libraries\arduino-psx-master/Psx.cpp:36
byte Psx::shift(byte _dataOut)							// Does the actual shifting, both in and out simultaneously
{
	_temp = 0;
	_dataIn = 0;

	for (_i = 0; _i <= 7; _i++)
     214:	90 91 88 01 	lds	r25, 0x0188	; 0x800188 <Psx+0x5>
     218:	98 30       	cpi	r25, 0x08	; 8
     21a:	08 f0       	brcs	.+2      	; 0x21e <Psx::shift(unsigned char) [clone .constprop.2]+0x2a>
     21c:	56 c0       	rjmp	.+172    	; 0x2ca <Psx::shift(unsigned char) [clone .constprop.2]+0xd6>
     21e:	80 91 84 01 	lds	r24, 0x0184	; 0x800184 <Psx+0x1>
c:\Users\caleb\Dropbox\My PC (DESKTOP-ET1MHVE)\Documents\Arduino\libraries\arduino-psx-master/Psx.cpp:40
	{
		
		
		if ( _dataOut & (1 << _i) ) digitalWrite(_cmndPin, HIGH);	// Writes out the _dataOut bits
     222:	9e 01       	movw	r18, r28
     224:	02 c0       	rjmp	.+4      	; 0x22a <Psx::shift(unsigned char) [clone .constprop.2]+0x36>
     226:	35 95       	asr	r19
     228:	27 95       	ror	r18
     22a:	9a 95       	dec	r25
     22c:	e2 f7       	brpl	.-8      	; 0x226 <Psx::shift(unsigned char) [clone .constprop.2]+0x32>
     22e:	61 e0       	ldi	r22, 0x01	; 1
     230:	20 ff       	sbrs	r18, 0
c:\Users\caleb\Dropbox\My PC (DESKTOP-ET1MHVE)\Documents\Arduino\libraries\arduino-psx-master/Psx.cpp:41
		else digitalWrite(_cmndPin, LOW);
     232:	60 e0       	ldi	r22, 0x00	; 0
     234:	76 df       	rcall	.-276    	; 0x122 <digitalWrite>
c:\Users\caleb\Dropbox\My PC (DESKTOP-ET1MHVE)\Documents\Arduino\libraries\arduino-psx-master/Psx.cpp:43

		digitalWrite(_clockPin, LOW);
     236:	60 e0       	ldi	r22, 0x00	; 0
     238:	80 91 86 01 	lds	r24, 0x0186	; 0x800186 <Psx+0x3>
     23c:	72 df       	rcall	.-284    	; 0x122 <digitalWrite>
c:\Users\caleb\Dropbox\My PC (DESKTOP-ET1MHVE)\Documents\Arduino\libraries\arduino-psx-master/Psx.cpp:45
		
		delayMicroseconds(_delay);
     23e:	80 91 87 01 	lds	r24, 0x0187	; 0x800187 <Psx+0x4>
     242:	90 e0       	ldi	r25, 0x00	; 0
     244:	cc df       	rcall	.-104    	; 0x1de <delayMicroseconds>
digitalRead():
C:\Users\caleb\AppData\Local\Arduino15\packages\MiniCore\hardware\avr\3.0.1\cores\MCUdude_corefiles/wiring_digital.c:216
  SREG = oldSREG;
}

int digitalRead(uint8_t pin)
{
  uint8_t timer = digitalPinToTimer(pin);
     246:	20 91 83 01 	lds	r18, 0x0183	; 0x800183 <Psx>
     24a:	30 e0       	ldi	r19, 0x00	; 0
     24c:	f9 01       	movw	r30, r18
     24e:	e0 58       	subi	r30, 0x80	; 128
     250:	ff 4f       	sbci	r31, 0xFF	; 255
     252:	84 91       	lpm	r24, Z
C:\Users\caleb\AppData\Local\Arduino15\packages\MiniCore\hardware\avr\3.0.1\cores\MCUdude_corefiles/wiring_digital.c:217
  uint8_t bit = digitalPinToBitMask(pin);
     254:	f9 01       	movw	r30, r18
     256:	e7 59       	subi	r30, 0x97	; 151
     258:	ff 4f       	sbci	r31, 0xFF	; 255
     25a:	e4 90       	lpm	r14, Z
C:\Users\caleb\AppData\Local\Arduino15\packages\MiniCore\hardware\avr\3.0.1\cores\MCUdude_corefiles/wiring_digital.c:218
  uint8_t port = digitalPinToPort(pin);
     25c:	f9 01       	movw	r30, r18
     25e:	ee 5a       	subi	r30, 0xAE	; 174
     260:	ff 4f       	sbci	r31, 0xFF	; 255
     262:	f4 90       	lpm	r15, Z
C:\Users\caleb\AppData\Local\Arduino15\packages\MiniCore\hardware\avr\3.0.1\cores\MCUdude_corefiles/wiring_digital.c:220

  if (port == NOT_A_PIN) return LOW;
     264:	f1 10       	cpse	r15, r1
     266:	10 c0       	rjmp	.+32     	; 0x288 <Psx::shift(unsigned char) [clone .constprop.2]+0x94>
_ZN3Psx5shiftEh.constprop.2():
c:\Users\caleb\Dropbox\My PC (DESKTOP-ET1MHVE)\Documents\Arduino\libraries\arduino-psx-master/Psx.cpp:47

		_temp = digitalRead(_dataPin);					// Reads the data pin
     268:	10 92 89 01 	sts	0x0189, r1	; 0x800189 <Psx+0x6>
c:\Users\caleb\Dropbox\My PC (DESKTOP-ET1MHVE)\Documents\Arduino\libraries\arduino-psx-master/Psx.cpp:53
		if (_temp)
		{
			_dataIn = _dataIn | (B10000000 >> _i);		// Shifts the read data into _dataIn
		}

		digitalWrite(_clockPin, HIGH);
     26c:	61 e0       	ldi	r22, 0x01	; 1
     26e:	80 91 86 01 	lds	r24, 0x0186	; 0x800186 <Psx+0x3>
     272:	57 df       	rcall	.-338    	; 0x122 <digitalWrite>
c:\Users\caleb\Dropbox\My PC (DESKTOP-ET1MHVE)\Documents\Arduino\libraries\arduino-psx-master/Psx.cpp:54
		delayMicroseconds(_delay);
     274:	80 91 87 01 	lds	r24, 0x0187	; 0x800187 <Psx+0x4>
     278:	90 e0       	ldi	r25, 0x00	; 0
     27a:	b1 df       	rcall	.-158    	; 0x1de <delayMicroseconds>
c:\Users\caleb\Dropbox\My PC (DESKTOP-ET1MHVE)\Documents\Arduino\libraries\arduino-psx-master/Psx.cpp:36
byte Psx::shift(byte _dataOut)							// Does the actual shifting, both in and out simultaneously
{
	_temp = 0;
	_dataIn = 0;

	for (_i = 0; _i <= 7; _i++)
     27c:	80 91 88 01 	lds	r24, 0x0188	; 0x800188 <Psx+0x5>
     280:	8f 5f       	subi	r24, 0xFF	; 255
     282:	80 93 88 01 	sts	0x0188, r24	; 0x800188 <Psx+0x5>
     286:	c6 cf       	rjmp	.-116    	; 0x214 <Psx::shift(unsigned char) [clone .constprop.2]+0x20>
digitalRead():
C:\Users\caleb\AppData\Local\Arduino15\packages\MiniCore\hardware\avr\3.0.1\cores\MCUdude_corefiles/wiring_digital.c:224

  // If the pin that support PWM output, we need to turn it off
  // before getting a digital reading.
  if (timer != NOT_ON_TIMER) turnOffPWM(timer);
     288:	81 11       	cpse	r24, r1
     28a:	22 df       	rcall	.-444    	; 0xd0 <turnOffPWM>
C:\Users\caleb\AppData\Local\Arduino15\packages\MiniCore\hardware\avr\3.0.1\cores\MCUdude_corefiles/wiring_digital.c:226

  if (*portInputRegister(port) & bit) return HIGH;
     28c:	ef 2d       	mov	r30, r15
     28e:	f0 e0       	ldi	r31, 0x00	; 0
     290:	ee 0f       	add	r30, r30
     292:	ff 1f       	adc	r31, r31
     294:	e8 5b       	subi	r30, 0xB8	; 184
     296:	ff 4f       	sbci	r31, 0xFF	; 255
     298:	a5 91       	lpm	r26, Z+
     29a:	b4 91       	lpm	r27, Z
     29c:	ec 91       	ld	r30, X
     29e:	ee 21       	and	r30, r14
     2a0:	81 e0       	ldi	r24, 0x01	; 1
     2a2:	09 f4       	brne	.+2      	; 0x2a6 <Psx::shift(unsigned char) [clone .constprop.2]+0xb2>
     2a4:	80 e0       	ldi	r24, 0x00	; 0
_ZN3Psx5shiftEh.constprop.2():
c:\Users\caleb\Dropbox\My PC (DESKTOP-ET1MHVE)\Documents\Arduino\libraries\arduino-psx-master/Psx.cpp:47

		digitalWrite(_clockPin, LOW);
		
		delayMicroseconds(_delay);

		_temp = digitalRead(_dataPin);					// Reads the data pin
     2a6:	80 93 89 01 	sts	0x0189, r24	; 0x800189 <Psx+0x6>
c:\Users\caleb\Dropbox\My PC (DESKTOP-ET1MHVE)\Documents\Arduino\libraries\arduino-psx-master/Psx.cpp:48
		if (_temp)
     2aa:	ee 23       	and	r30, r30
     2ac:	f9 f2       	breq	.-66     	; 0x26c <Psx::shift(unsigned char) [clone .constprop.2]+0x78>
c:\Users\caleb\Dropbox\My PC (DESKTOP-ET1MHVE)\Documents\Arduino\libraries\arduino-psx-master/Psx.cpp:50
		{
			_dataIn = _dataIn | (B10000000 >> _i);		// Shifts the read data into _dataIn
     2ae:	80 91 88 01 	lds	r24, 0x0188	; 0x800188 <Psx+0x5>
     2b2:	98 01       	movw	r18, r16
     2b4:	02 c0       	rjmp	.+4      	; 0x2ba <Psx::shift(unsigned char) [clone .constprop.2]+0xc6>
     2b6:	35 95       	asr	r19
     2b8:	27 95       	ror	r18
     2ba:	8a 95       	dec	r24
     2bc:	e2 f7       	brpl	.-8      	; 0x2b6 <Psx::shift(unsigned char) [clone .constprop.2]+0xc2>
     2be:	80 91 8a 01 	lds	r24, 0x018A	; 0x80018a <Psx+0x7>
     2c2:	82 2b       	or	r24, r18
     2c4:	80 93 8a 01 	sts	0x018A, r24	; 0x80018a <Psx+0x7>
     2c8:	d1 cf       	rjmp	.-94     	; 0x26c <Psx::shift(unsigned char) [clone .constprop.2]+0x78>
c:\Users\caleb\Dropbox\My PC (DESKTOP-ET1MHVE)\Documents\Arduino\libraries\arduino-psx-master/Psx.cpp:57

		digitalWrite(_clockPin, HIGH);
		delayMicroseconds(_delay);
	}
	return _dataIn;
}
     2ca:	80 91 8a 01 	lds	r24, 0x018A	; 0x80018a <Psx+0x7>
     2ce:	df 91       	pop	r29
     2d0:	cf 91       	pop	r28
     2d2:	1f 91       	pop	r17
     2d4:	0f 91       	pop	r16
     2d6:	ff 90       	pop	r15
     2d8:	ef 90       	pop	r14
     2da:	08 95       	ret

000002dc <micros>:
micros():
C:\Users\caleb\AppData\Local\Arduino15\packages\MiniCore\hardware\avr\3.0.1\cores\MCUdude_corefiles/wiring.c:237
  unsigned char f; // temporary storage for millis fraction counter
  unsigned char q = 0; // record whether an overflow is flagged
#endif
  // t will be the number where the timer0 counter stopped
  uint8_t t;
  uint8_t oldSREG = SREG;
     2dc:	3f b7       	in	r19, 0x3f	; 63
C:\Users\caleb\AppData\Local\Arduino15\packages\MiniCore\hardware\avr\3.0.1\cores\MCUdude_corefiles/wiring.c:240

  // Stop all interrupts
  cli();
     2de:	f8 94       	cli
C:\Users\caleb\AppData\Local\Arduino15\packages\MiniCore\hardware\avr\3.0.1\cores\MCUdude_corefiles/wiring.c:247
#ifdef CORRECT_EXACT_MICROS
  // combine exact millisec and 8usec counters
  m = timer0_millis;
  f = timer0_fract;
#else
  m = timer0_overflow_count;
     2e0:	80 91 7f 01 	lds	r24, 0x017F	; 0x80017f <timer0_overflow_count>
     2e4:	90 91 80 01 	lds	r25, 0x0180	; 0x800180 <timer0_overflow_count+0x1>
     2e8:	a0 91 81 01 	lds	r26, 0x0181	; 0x800181 <timer0_overflow_count+0x2>
     2ec:	b0 91 82 01 	lds	r27, 0x0182	; 0x800182 <timer0_overflow_count+0x3>
C:\Users\caleb\AppData\Local\Arduino15\packages\MiniCore\hardware\avr\3.0.1\cores\MCUdude_corefiles/wiring.c:252
#endif

  // TCNT0 : The Timer Counter Register
#if defined(TCNT0)
  t = TCNT0;
     2f0:	26 b5       	in	r18, 0x26	; 38
C:\Users\caleb\AppData\Local\Arduino15\packages\MiniCore\hardware\avr\3.0.1\cores\MCUdude_corefiles/wiring.c:261
  #error TIMER 0 not defined
#endif

  // Timer0 Interrupt Flag Register
#ifdef TIFR0
  if ((TIFR0 & _BV(TOV0)) && (t < 255))
     2f2:	a8 9b       	sbis	0x15, 0	; 21
     2f4:	05 c0       	rjmp	.+10     	; 0x300 <micros+0x24>
     2f6:	2f 3f       	cpi	r18, 0xFF	; 255
     2f8:	19 f0       	breq	.+6      	; 0x300 <micros+0x24>
C:\Users\caleb\AppData\Local\Arduino15\packages\MiniCore\hardware\avr\3.0.1\cores\MCUdude_corefiles/wiring.c:263
#ifndef CORRECT_EXACT_MICROS
    m++;
     2fa:	01 96       	adiw	r24, 0x01	; 1
     2fc:	a1 1d       	adc	r26, r1
     2fe:	b1 1d       	adc	r27, r1
C:\Users\caleb\AppData\Local\Arduino15\packages\MiniCore\hardware\avr\3.0.1\cores\MCUdude_corefiles/wiring.c:276
#else
    q = 1;
#endif
#endif
  // Restore SREG
  SREG = oldSREG;
     300:	3f bf       	out	0x3f, r19	; 63
C:\Users\caleb\AppData\Local\Arduino15\packages\MiniCore\hardware\avr\3.0.1\cores\MCUdude_corefiles/wiring.c:292
      ((t * MICROSECONDS_PER_TIMER0_OVERFLOW) >> 8);
  return q ? m + MICROSECONDS_PER_TIMER0_OVERFLOW : m;
#elif 1
  /* All power-of-two Megahertz frequencies enter here, as well as 12.8 MHz.
     We only end up here if right shift before multiplication is exact. */
  return ((m << 8) + t) * (MICROSECONDS_PER_TIMER0_OVERFLOW >> 8);
     302:	ba 2f       	mov	r27, r26
     304:	a9 2f       	mov	r26, r25
     306:	98 2f       	mov	r25, r24
     308:	88 27       	eor	r24, r24
     30a:	bc 01       	movw	r22, r24
     30c:	cd 01       	movw	r24, r26
     30e:	62 0f       	add	r22, r18
     310:	71 1d       	adc	r23, r1
     312:	81 1d       	adc	r24, r1
     314:	91 1d       	adc	r25, r1
     316:	43 e0       	ldi	r20, 0x03	; 3
     318:	66 0f       	add	r22, r22
     31a:	77 1f       	adc	r23, r23
     31c:	88 1f       	adc	r24, r24
     31e:	99 1f       	adc	r25, r25
     320:	4a 95       	dec	r20
     322:	d1 f7       	brne	.-12     	; 0x318 <micros+0x3c>
C:\Users\caleb\AppData\Local\Arduino15\packages\MiniCore\hardware\avr\3.0.1\cores\MCUdude_corefiles/wiring.c:393
  // m & t are multiplied by 4 (since it was already multiplied by 256)
  // t is multiplied by 4
  return ((m << 8) + t) * (64 / clockCyclesPerMicrosecond());
#endif
#endif // 0
}
     324:	08 95       	ret

00000326 <delay>:
delay():
C:\Users\caleb\AppData\Local\Arduino15\packages\MiniCore\hardware\avr\3.0.1\cores\MCUdude_corefiles/wiring.c:396

void delay(unsigned long ms)
{
     326:	8f 92       	push	r8
     328:	9f 92       	push	r9
     32a:	af 92       	push	r10
     32c:	bf 92       	push	r11
     32e:	cf 92       	push	r12
     330:	df 92       	push	r13
     332:	ef 92       	push	r14
     334:	ff 92       	push	r15
     336:	4b 01       	movw	r8, r22
     338:	5c 01       	movw	r10, r24
C:\Users\caleb\AppData\Local\Arduino15\packages\MiniCore\hardware\avr\3.0.1\cores\MCUdude_corefiles/wiring.c:397
  unsigned long start = micros();
     33a:	d0 df       	rcall	.-96     	; 0x2dc <micros>
     33c:	6b 01       	movw	r12, r22
     33e:	7c 01       	movw	r14, r24
C:\Users\caleb\AppData\Local\Arduino15\packages\MiniCore\hardware\avr\3.0.1\cores\MCUdude_corefiles/wiring.c:401

  while (ms > 0UL) {
    yield();
    while (ms > 0UL && (micros() - start) >= 1000UL) {
     340:	cd df       	rcall	.-102    	; 0x2dc <micros>
     342:	6c 19       	sub	r22, r12
     344:	7d 09       	sbc	r23, r13
     346:	8e 09       	sbc	r24, r14
     348:	9f 09       	sbc	r25, r15
     34a:	68 3e       	cpi	r22, 0xE8	; 232
     34c:	73 40       	sbci	r23, 0x03	; 3
     34e:	81 05       	cpc	r24, r1
     350:	91 05       	cpc	r25, r1
     352:	b0 f3       	brcs	.-20     	; 0x340 <delay+0x1a>
C:\Users\caleb\AppData\Local\Arduino15\packages\MiniCore\hardware\avr\3.0.1\cores\MCUdude_corefiles/wiring.c:402
      ms--;
     354:	21 e0       	ldi	r18, 0x01	; 1
     356:	82 1a       	sub	r8, r18
     358:	91 08       	sbc	r9, r1
     35a:	a1 08       	sbc	r10, r1
     35c:	b1 08       	sbc	r11, r1
C:\Users\caleb\AppData\Local\Arduino15\packages\MiniCore\hardware\avr\3.0.1\cores\MCUdude_corefiles/wiring.c:403
      start += 1000UL;
     35e:	88 ee       	ldi	r24, 0xE8	; 232
     360:	c8 0e       	add	r12, r24
     362:	83 e0       	ldi	r24, 0x03	; 3
     364:	d8 1e       	adc	r13, r24
     366:	e1 1c       	adc	r14, r1
     368:	f1 1c       	adc	r15, r1
C:\Users\caleb\AppData\Local\Arduino15\packages\MiniCore\hardware\avr\3.0.1\cores\MCUdude_corefiles/wiring.c:401
{
  unsigned long start = micros();

  while (ms > 0UL) {
    yield();
    while (ms > 0UL && (micros() - start) >= 1000UL) {
     36a:	81 14       	cp	r8, r1
     36c:	91 04       	cpc	r9, r1
     36e:	a1 04       	cpc	r10, r1
     370:	b1 04       	cpc	r11, r1
     372:	31 f7       	brne	.-52     	; 0x340 <delay+0x1a>
C:\Users\caleb\AppData\Local\Arduino15\packages\MiniCore\hardware\avr\3.0.1\cores\MCUdude_corefiles/wiring.c:406
      ms--;
      start += 1000UL;
    }
  }
}
     374:	ff 90       	pop	r15
     376:	ef 90       	pop	r14
     378:	df 90       	pop	r13
     37a:	cf 90       	pop	r12
     37c:	bf 90       	pop	r11
     37e:	af 90       	pop	r10
     380:	9f 90       	pop	r9
     382:	8f 90       	pop	r8
     384:	08 95       	ret

00000386 <EEPROMClass::write(int, unsigned char) [clone .isra.1]>:
_ZN11EEPROMClass5writeEih.isra.1():
C:\Users\caleb\AppData\Local\Arduino15\packages\MiniCore\hardware\avr\3.0.1\libraries\EEPROM\src/EEPROM.h:47
    uint8_t operator*() const            { return eeprom_read_byte( (uint8_t*) index ); }
    operator uint8_t() const             { return **this; }
    
    //Assignment/write members.
    EERef &operator=( const EERef &ref ) { return *this = *ref; }
    EERef &operator=( uint8_t in )       { return eeprom_write_byte( (uint8_t*) index, in ), *this;  }
     386:	dc cb       	rjmp	.-2120   	; 0xfffffb40 <__eeprom_end+0xff7efb40>

00000388 <EEPROMClass::read(int) [clone .isra.0]>:
_ZN11EEPROMClass4readEi.isra.0():
C:\Users\caleb\AppData\Local\Arduino15\packages\MiniCore\hardware\avr\3.0.1\libraries\EEPROM\src/EEPROM.h:42

    EERef( const int index )
        : index( index )                 {}
    
    //Access/read members.
    uint8_t operator*() const            { return eeprom_read_byte( (uint8_t*) index ); }
     388:	d3 cb       	rjmp	.-2138   	; 0xfffffb30 <__eeprom_end+0xff7efb30>

0000038a <__vector_16>:
__vector_16():
C:\Users\caleb\AppData\Local\Arduino15\packages\MiniCore\hardware\avr\3.0.1\cores\MCUdude_corefiles/wiring.c:159
#if defined(__AVR_ATtiny24__) || defined(__AVR_ATtiny44__) || defined(__AVR_ATtiny84__)
ISR(TIM0_OVF_vect)
#else
ISR(TIMER0_OVF_vect)
#endif
{
     38a:	1f 92       	push	r1
     38c:	0f 92       	push	r0
     38e:	0f b6       	in	r0, 0x3f	; 63
     390:	0f 92       	push	r0
     392:	11 24       	eor	r1, r1
     394:	2f 93       	push	r18
     396:	3f 93       	push	r19
     398:	8f 93       	push	r24
     39a:	9f 93       	push	r25
     39c:	af 93       	push	r26
     39e:	bf 93       	push	r27
C:\Users\caleb\AppData\Local\Arduino15\packages\MiniCore\hardware\avr\3.0.1\cores\MCUdude_corefiles/wiring.c:167
  static unsigned char timer0_exact = 0;
#endif

  // copy these to local variables so they can be stored in registers
  // (volatile variables must be read from memory on every access, so this saves time)
  unsigned long m = timer0_millis;
     3a0:	80 91 7b 01 	lds	r24, 0x017B	; 0x80017b <timer0_millis>
     3a4:	90 91 7c 01 	lds	r25, 0x017C	; 0x80017c <timer0_millis+0x1>
     3a8:	a0 91 7d 01 	lds	r26, 0x017D	; 0x80017d <timer0_millis+0x2>
     3ac:	b0 91 7e 01 	lds	r27, 0x017E	; 0x80017e <timer0_millis+0x3>
C:\Users\caleb\AppData\Local\Arduino15\packages\MiniCore\hardware\avr\3.0.1\cores\MCUdude_corefiles/wiring.c:168
  unsigned char f = timer0_fract;
     3b0:	30 91 7a 01 	lds	r19, 0x017A	; 0x80017a <timer0_fract>
C:\Users\caleb\AppData\Local\Arduino15\packages\MiniCore\hardware\avr\3.0.1\cores\MCUdude_corefiles/wiring.c:170

  f += FRACT_INC FRACT_INC_PLUS;
     3b4:	26 e0       	ldi	r18, 0x06	; 6
     3b6:	23 0f       	add	r18, r19
C:\Users\caleb\AppData\Local\Arduino15\packages\MiniCore\hardware\avr\3.0.1\cores\MCUdude_corefiles/wiring.c:200
    ++f;
  }
#endif
#endif // CORRECT_EXACT_MILLIS

  if (f >= FRACT_MAX) {
     3b8:	2d 37       	cpi	r18, 0x7D	; 125
     3ba:	68 f1       	brcs	.+90     	; 0x416 <__LOCK_REGION_LENGTH__+0x16>
C:\Users\caleb\AppData\Local\Arduino15\packages\MiniCore\hardware\avr\3.0.1\cores\MCUdude_corefiles/wiring.c:201
    f -= FRACT_MAX;
     3bc:	29 e8       	ldi	r18, 0x89	; 137
     3be:	23 0f       	add	r18, r19
C:\Users\caleb\AppData\Local\Arduino15\packages\MiniCore\hardware\avr\3.0.1\cores\MCUdude_corefiles/wiring.c:202
    m += MILLIS_INC + 1;
     3c0:	03 96       	adiw	r24, 0x03	; 3
     3c2:	a1 1d       	adc	r26, r1
     3c4:	b1 1d       	adc	r27, r1
C:\Users\caleb\AppData\Local\Arduino15\packages\MiniCore\hardware\avr\3.0.1\cores\MCUdude_corefiles/wiring.c:208
  }
  else {
    m += MILLIS_INC;
  }

  timer0_fract = f;
     3c6:	20 93 7a 01 	sts	0x017A, r18	; 0x80017a <timer0_fract>
C:\Users\caleb\AppData\Local\Arduino15\packages\MiniCore\hardware\avr\3.0.1\cores\MCUdude_corefiles/wiring.c:209
  timer0_millis = m;
     3ca:	80 93 7b 01 	sts	0x017B, r24	; 0x80017b <timer0_millis>
     3ce:	90 93 7c 01 	sts	0x017C, r25	; 0x80017c <timer0_millis+0x1>
     3d2:	a0 93 7d 01 	sts	0x017D, r26	; 0x80017d <timer0_millis+0x2>
     3d6:	b0 93 7e 01 	sts	0x017E, r27	; 0x80017e <timer0_millis+0x3>
C:\Users\caleb\AppData\Local\Arduino15\packages\MiniCore\hardware\avr\3.0.1\cores\MCUdude_corefiles/wiring.c:211
#ifndef CORRECT_EXACT_MICROS
  timer0_overflow_count++;
     3da:	80 91 7f 01 	lds	r24, 0x017F	; 0x80017f <timer0_overflow_count>
     3de:	90 91 80 01 	lds	r25, 0x0180	; 0x800180 <timer0_overflow_count+0x1>
     3e2:	a0 91 81 01 	lds	r26, 0x0181	; 0x800181 <timer0_overflow_count+0x2>
     3e6:	b0 91 82 01 	lds	r27, 0x0182	; 0x800182 <timer0_overflow_count+0x3>
     3ea:	01 96       	adiw	r24, 0x01	; 1
     3ec:	a1 1d       	adc	r26, r1
     3ee:	b1 1d       	adc	r27, r1
     3f0:	80 93 7f 01 	sts	0x017F, r24	; 0x80017f <timer0_overflow_count>
     3f4:	90 93 80 01 	sts	0x0180, r25	; 0x800180 <timer0_overflow_count+0x1>
     3f8:	a0 93 81 01 	sts	0x0181, r26	; 0x800181 <timer0_overflow_count+0x2>
     3fc:	b0 93 82 01 	sts	0x0182, r27	; 0x800182 <timer0_overflow_count+0x3>
C:\Users\caleb\AppData\Local\Arduino15\packages\MiniCore\hardware\avr\3.0.1\cores\MCUdude_corefiles/wiring.c:213
#endif
}
     400:	bf 91       	pop	r27
     402:	af 91       	pop	r26
     404:	9f 91       	pop	r25
     406:	8f 91       	pop	r24
     408:	3f 91       	pop	r19
     40a:	2f 91       	pop	r18
     40c:	0f 90       	pop	r0
     40e:	0f be       	out	0x3f, r0	; 63
     410:	0f 90       	pop	r0
     412:	1f 90       	pop	r1
     414:	18 95       	reti
C:\Users\caleb\AppData\Local\Arduino15\packages\MiniCore\hardware\avr\3.0.1\cores\MCUdude_corefiles/wiring.c:205
  if (f >= FRACT_MAX) {
    f -= FRACT_MAX;
    m += MILLIS_INC + 1;
  }
  else {
    m += MILLIS_INC;
     416:	02 96       	adiw	r24, 0x02	; 2
     418:	a1 1d       	adc	r26, r1
     41a:	b1 1d       	adc	r27, r1
     41c:	d4 cf       	rjmp	.-88     	; 0x3c6 <__vector_16+0x3c>

0000041e <main>:
main():
C:\Users\caleb\AppData\Local\Arduino15\packages\MiniCore\hardware\avr\3.0.1\cores\MCUdude_corefiles/wiring.c:945

void init()
{
  // this needs to be called before setup() or some functions won't
  // work there
  sei();
     41e:	78 94       	sei
C:\Users\caleb\AppData\Local\Arduino15\packages\MiniCore\hardware\avr\3.0.1\cores\MCUdude_corefiles/wiring.c:957

  // On the ATmega168, timer 0 is also used for fast hardware pwm
  // (using phase-correct PWM would mean that timer 0 overflowed half as often
  // resulting in different millis() behavior on the ATmega8 and ATmega168)
#if defined(TCCR0A) && defined(WGM01)
  TCCR0A |= _BV(WGM01) | _BV(WGM00);
     420:	84 b5       	in	r24, 0x24	; 36
     422:	83 60       	ori	r24, 0x03	; 3
     424:	84 bd       	out	0x24, r24	; 36
C:\Users\caleb\AppData\Local\Arduino15\packages\MiniCore\hardware\avr\3.0.1\cores\MCUdude_corefiles/wiring.c:972
  #if defined(WGM00) && defined(WGM01) // The ATmega8 doesn't have WGM00 and WGM01
    TCCR0 |= _BV(WGM01) | _BV(WGM00);
  #endif
#elif defined(TCCR0B) && defined(CS01) && defined(CS00)
  // This combination is for the standard 168/328/640/1280/1281/2560/2561
  TCCR0B |= _BV(CS01) | _BV(CS00);
     426:	85 b5       	in	r24, 0x25	; 37
     428:	83 60       	ori	r24, 0x03	; 3
     42a:	85 bd       	out	0x25, r24	; 37
C:\Users\caleb\AppData\Local\Arduino15\packages\MiniCore\hardware\avr\3.0.1\cores\MCUdude_corefiles/wiring.c:984

// Enable timer 0 overflow interrupt
#if defined(TIMSK) && defined(TOIE0)
  TIMSK |= _BV(TOIE0);
#elif defined(TIMSK0) && defined(TOIE0)
  TIMSK0 |= _BV(TOIE0);
     42c:	80 91 6e 00 	lds	r24, 0x006E	; 0x80006e <__DATA_REGION_ORIGIN__+0xe>
     430:	81 60       	ori	r24, 0x01	; 1
     432:	80 93 6e 00 	sts	0x006E, r24	; 0x80006e <__DATA_REGION_ORIGIN__+0xe>
C:\Users\caleb\AppData\Local\Arduino15\packages\MiniCore\hardware\avr\3.0.1\cores\MCUdude_corefiles/wiring.c:995
// this is better for motors as it ensures an even waveform
// note, however, that fast pwm mode can achieve a frequency of up
// 8 MHz (with a 16 MHz clock) at 50% duty cycle

#if defined(TCCR1B) && defined(CS11) && defined(CS10)
  TCCR1B = _BV(CS11); // Set timer 1 prescale factor to 64
     436:	82 e0       	ldi	r24, 0x02	; 2
     438:	80 93 81 00 	sts	0x0081, r24	; 0x800081 <__DATA_REGION_ORIGIN__+0x21>
C:\Users\caleb\AppData\Local\Arduino15\packages\MiniCore\hardware\avr\3.0.1\cores\MCUdude_corefiles/wiring.c:997
#if F_CPU >= 8000000L
  TCCR1B |= _BV(CS10);
     43c:	80 91 81 00 	lds	r24, 0x0081	; 0x800081 <__DATA_REGION_ORIGIN__+0x21>
     440:	81 60       	ori	r24, 0x01	; 1
     442:	80 93 81 00 	sts	0x0081, r24	; 0x800081 <__DATA_REGION_ORIGIN__+0x21>
C:\Users\caleb\AppData\Local\Arduino15\packages\MiniCore\hardware\avr\3.0.1\cores\MCUdude_corefiles/wiring.c:1006
#if F_CPU >= 8000000L
  TCCR1 |= _BV(CS10);
#endif
#endif
#if defined(TCCR1A) && defined(WGM10)
  TCCR1A |= _BV(WGM10); // Put timer 1 in 8-bit phase correct pwm mode
     446:	80 91 80 00 	lds	r24, 0x0080	; 0x800080 <__DATA_REGION_ORIGIN__+0x20>
     44a:	81 60       	ori	r24, 0x01	; 1
     44c:	80 93 80 00 	sts	0x0080, r24	; 0x800080 <__DATA_REGION_ORIGIN__+0x20>
C:\Users\caleb\AppData\Local\Arduino15\packages\MiniCore\hardware\avr\3.0.1\cores\MCUdude_corefiles/wiring.c:1013

// Set timer 2 prescale factor to 64
#if defined(TCCR2) && defined(CS22)
  TCCR2 |= _BV(CS22);
#elif defined(TCCR2B) && defined(CS22)
  TCCR2B |= _BV(CS22);
     450:	80 91 b1 00 	lds	r24, 0x00B1	; 0x8000b1 <__DATA_REGION_ORIGIN__+0x51>
     454:	84 60       	ori	r24, 0x04	; 4
     456:	80 93 b1 00 	sts	0x00B1, r24	; 0x8000b1 <__DATA_REGION_ORIGIN__+0x51>
C:\Users\caleb\AppData\Local\Arduino15\packages\MiniCore\hardware\avr\3.0.1\cores\MCUdude_corefiles/wiring.c:1022

// Configure timer 2 for phase correct pwm (8-bit)
#if defined(TCCR2) && defined(WGM20)
  TCCR2 |= _BV(WGM20);
#elif defined(TCCR2A) && defined(WGM20)
  TCCR2A |= _BV(WGM20);
     45a:	80 91 b0 00 	lds	r24, 0x00B0	; 0x8000b0 <__DATA_REGION_ORIGIN__+0x50>
     45e:	81 60       	ori	r24, 0x01	; 1
     460:	80 93 b0 00 	sts	0x00B0, r24	; 0x8000b0 <__DATA_REGION_ORIGIN__+0x50>
C:\Users\caleb\AppData\Local\Arduino15\packages\MiniCore\hardware\avr\3.0.1\cores\MCUdude_corefiles/wiring.c:1052
#if defined(ADCSRA)
  // set a2d prescaler so we are inside the desired 50-200 KHz range.
  #if F_CPU >= 16000000 // 16 MHz / 128 = 125 KHz
    ADCSRA = _BV(ADPS2) | _BV(ADPS1) | _BV(ADPS0) | _BV(ADEN);
  #elif F_CPU >= 8000000 // 8 MHz / 64 = 125 KHz
    ADCSRA = _BV(ADPS2) | _BV(ADPS1) | _BV(ADEN);
     464:	86 e8       	ldi	r24, 0x86	; 134
     466:	80 93 7a 00 	sts	0x007A, r24	; 0x80007a <__DATA_REGION_ORIGIN__+0x1a>
C:\Users\caleb\AppData\Local\Arduino15\packages\MiniCore\hardware\avr\3.0.1\cores\MCUdude_corefiles/wiring.c:1070
  // here so they can be used as normal digital i/o; they will be
  // reconnected in Serial.begin()
#if defined(UCSRB)
  UCSRB = 0;
#elif defined(UCSR0B)
  UCSR0B = 0;
     46a:	10 92 c1 00 	sts	0x00C1, r1	; 0x8000c1 <__DATA_REGION_ORIGIN__+0x61>
setupPins():
c:\Users\caleb\Dropbox\My PC (DESKTOP-ET1MHVE)\Documents\Arduino\libraries\arduino-psx-master/Psx.cpp:62


void Psx::setupPins(byte dataPin, byte cmndPin, byte attPin, byte clockPin, byte delay)
{
	pinMode(dataPin, INPUT);
     46e:	60 e0       	ldi	r22, 0x00	; 0
     470:	83 e1       	ldi	r24, 0x13	; 19
     472:	84 de       	rcall	.-760    	; 0x17c <pinMode>
c:\Users\caleb\Dropbox\My PC (DESKTOP-ET1MHVE)\Documents\Arduino\libraries\arduino-psx-master/Psx.cpp:63
	digitalWrite(dataPin, HIGH);	// Turn on internal pull-up
     474:	61 e0       	ldi	r22, 0x01	; 1
     476:	83 e1       	ldi	r24, 0x13	; 19
     478:	54 de       	rcall	.-856    	; 0x122 <digitalWrite>
c:\Users\caleb\Dropbox\My PC (DESKTOP-ET1MHVE)\Documents\Arduino\libraries\arduino-psx-master/Psx.cpp:64
	_dataPin = dataPin;
     47a:	83 e1       	ldi	r24, 0x13	; 19
     47c:	80 93 83 01 	sts	0x0183, r24	; 0x800183 <Psx>
c:\Users\caleb\Dropbox\My PC (DESKTOP-ET1MHVE)\Documents\Arduino\libraries\arduino-psx-master/Psx.cpp:66

	pinMode(cmndPin, OUTPUT);
     480:	61 e0       	ldi	r22, 0x01	; 1
     482:	8e e0       	ldi	r24, 0x0E	; 14
     484:	7b de       	rcall	.-778    	; 0x17c <pinMode>
c:\Users\caleb\Dropbox\My PC (DESKTOP-ET1MHVE)\Documents\Arduino\libraries\arduino-psx-master/Psx.cpp:67
	_cmndPin = cmndPin;
     486:	8e e0       	ldi	r24, 0x0E	; 14
     488:	80 93 84 01 	sts	0x0184, r24	; 0x800184 <Psx+0x1>
c:\Users\caleb\Dropbox\My PC (DESKTOP-ET1MHVE)\Documents\Arduino\libraries\arduino-psx-master/Psx.cpp:69

	pinMode(attPin, OUTPUT);
     48c:	61 e0       	ldi	r22, 0x01	; 1
     48e:	80 e1       	ldi	r24, 0x10	; 16
     490:	75 de       	rcall	.-790    	; 0x17c <pinMode>
c:\Users\caleb\Dropbox\My PC (DESKTOP-ET1MHVE)\Documents\Arduino\libraries\arduino-psx-master/Psx.cpp:70
	_attPin = attPin;
     492:	80 e1       	ldi	r24, 0x10	; 16
     494:	80 93 85 01 	sts	0x0185, r24	; 0x800185 <Psx+0x2>
c:\Users\caleb\Dropbox\My PC (DESKTOP-ET1MHVE)\Documents\Arduino\libraries\arduino-psx-master/Psx.cpp:71
	digitalWrite(_attPin, HIGH);
     498:	61 e0       	ldi	r22, 0x01	; 1
     49a:	43 de       	rcall	.-890    	; 0x122 <digitalWrite>
c:\Users\caleb\Dropbox\My PC (DESKTOP-ET1MHVE)\Documents\Arduino\libraries\arduino-psx-master/Psx.cpp:73

	pinMode(clockPin, OUTPUT);
     49c:	61 e0       	ldi	r22, 0x01	; 1
     49e:	8f e0       	ldi	r24, 0x0F	; 15
     4a0:	6d de       	rcall	.-806    	; 0x17c <pinMode>
c:\Users\caleb\Dropbox\My PC (DESKTOP-ET1MHVE)\Documents\Arduino\libraries\arduino-psx-master/Psx.cpp:74
	_clockPin = clockPin;
     4a2:	8f e0       	ldi	r24, 0x0F	; 15
     4a4:	80 93 86 01 	sts	0x0186, r24	; 0x800186 <Psx+0x3>
c:\Users\caleb\Dropbox\My PC (DESKTOP-ET1MHVE)\Documents\Arduino\libraries\arduino-psx-master/Psx.cpp:75
	digitalWrite(_clockPin, HIGH);
     4a8:	61 e0       	ldi	r22, 0x01	; 1
     4aa:	3b de       	rcall	.-906    	; 0x122 <digitalWrite>
c:\Users\caleb\Dropbox\My PC (DESKTOP-ET1MHVE)\Documents\Arduino\libraries\arduino-psx-master/Psx.cpp:77
	
	_delay = delay;
     4ac:	8a e0       	ldi	r24, 0x0A	; 10
     4ae:	80 93 87 01 	sts	0x0187, r24	; 0x800187 <Psx+0x4>
setup():
Z:\Projects\PS1\PSX-Controller-DB-15-Adapter\Code\Psx_To_DB-15_REMAP_AF/Psx_To_DB-15_REMAP_AF.ino:119
void setup(){
  Psx.setupPins(dataPin, cmndPin, attPin, clockPin, 10);  // Defines what each pin is used
                                                          // (Data Pin #, Cmnd Pin #, Att Pin #, Clk Pin #, Delay)
                                                          // Delay measures how long the clock remains at each state,
                                                          // measured in microseconds. too small delay may not work (under 5)   
 HASmode = EEPROM.read(17);
     4b2:	81 e1       	ldi	r24, 0x11	; 17
     4b4:	90 e0       	ldi	r25, 0x00	; 0
     4b6:	68 df       	rcall	.-304    	; 0x388 <EEPROMClass::read(int) [clone .isra.0]>
     4b8:	28 2f       	mov	r18, r24
     4ba:	30 e0       	ldi	r19, 0x00	; 0
     4bc:	30 93 15 01 	sts	0x0115, r19	; 0x800115 <HASmode+0x1>
     4c0:	20 93 14 01 	sts	0x0114, r18	; 0x800114 <HASmode>
Z:\Projects\PS1\PSX-Controller-DB-15-Adapter\Code\Psx_To_DB-15_REMAP_AF/Psx_To_DB-15_REMAP_AF.ino:120
if (HASmode != 0 && HASmode != 1){
     4c4:	82 30       	cpi	r24, 0x02	; 2
     4c6:	50 f0       	brcs	.+20     	; 0x4dc <main+0xbe>
Z:\Projects\PS1\PSX-Controller-DB-15-Adapter\Code\Psx_To_DB-15_REMAP_AF/Psx_To_DB-15_REMAP_AF.ino:121
  HASmode = 1;
     4c8:	81 e0       	ldi	r24, 0x01	; 1
     4ca:	90 e0       	ldi	r25, 0x00	; 0
     4cc:	90 93 15 01 	sts	0x0115, r25	; 0x800115 <HASmode+0x1>
     4d0:	80 93 14 01 	sts	0x0114, r24	; 0x800114 <HASmode>
Z:\Projects\PS1\PSX-Controller-DB-15-Adapter\Code\Psx_To_DB-15_REMAP_AF/Psx_To_DB-15_REMAP_AF.ino:122
  EEPROM.write(17,HASmode);
     4d4:	61 e0       	ldi	r22, 0x01	; 1
     4d6:	81 e1       	ldi	r24, 0x11	; 17
     4d8:	90 e0       	ldi	r25, 0x00	; 0
     4da:	55 df       	rcall	.-342    	; 0x386 <EEPROMClass::write(int, unsigned char) [clone .isra.1]>
Z:\Projects\PS1\PSX-Controller-DB-15-Adapter\Code\Psx_To_DB-15_REMAP_AF/Psx_To_DB-15_REMAP_AF.ino:125
}

  if (HASmode == 0){
     4dc:	80 91 14 01 	lds	r24, 0x0114	; 0x800114 <HASmode>
     4e0:	90 91 15 01 	lds	r25, 0x0115	; 0x800115 <HASmode+0x1>
     4e4:	89 2b       	or	r24, r25
     4e6:	09 f0       	breq	.+2      	; 0x4ea <main+0xcc>
     4e8:	90 c0       	rjmp	.+288    	; 0x60a <__stack+0x10b>
     4ea:	cc e0       	ldi	r28, 0x0C	; 12
     4ec:	d0 e0       	ldi	r29, 0x00	; 0
Z:\Projects\PS1\PSX-Controller-DB-15-Adapter\Code\Psx_To_DB-15_REMAP_AF/Psx_To_DB-15_REMAP_AF.ino:127
    for (int i = 0; i <= 11; i++) {
    DDRD = 0;
     4ee:	1a b8       	out	0x0a, r1	; 10
Z:\Projects\PS1\PSX-Controller-DB-15-Adapter\Code\Psx_To_DB-15_REMAP_AF/Psx_To_DB-15_REMAP_AF.ino:128
    delay(16);
     4f0:	60 e1       	ldi	r22, 0x10	; 16
     4f2:	70 e0       	ldi	r23, 0x00	; 0
     4f4:	80 e0       	ldi	r24, 0x00	; 0
     4f6:	90 e0       	ldi	r25, 0x00	; 0
     4f8:	16 df       	rcall	.-468    	; 0x326 <delay>
Z:\Projects\PS1\PSX-Controller-DB-15-Adapter\Code\Psx_To_DB-15_REMAP_AF/Psx_To_DB-15_REMAP_AF.ino:129
    DDRD |= 1;
     4fa:	50 9a       	sbi	0x0a, 0	; 10
Z:\Projects\PS1\PSX-Controller-DB-15-Adapter\Code\Psx_To_DB-15_REMAP_AF/Psx_To_DB-15_REMAP_AF.ino:130
    delay(16);
     4fc:	60 e1       	ldi	r22, 0x10	; 16
     4fe:	70 e0       	ldi	r23, 0x00	; 0
     500:	80 e0       	ldi	r24, 0x00	; 0
     502:	90 e0       	ldi	r25, 0x00	; 0
     504:	10 df       	rcall	.-480    	; 0x326 <delay>
     506:	21 97       	sbiw	r28, 0x01	; 1
Z:\Projects\PS1\PSX-Controller-DB-15-Adapter\Code\Psx_To_DB-15_REMAP_AF/Psx_To_DB-15_REMAP_AF.ino:126
  HASmode = 1;
  EEPROM.write(17,HASmode);
}

  if (HASmode == 0){
    for (int i = 0; i <= 11; i++) {
     508:	91 f7       	brne	.-28     	; 0x4ee <main+0xd0>
Z:\Projects\PS1\PSX-Controller-DB-15-Adapter\Code\Psx_To_DB-15_REMAP_AF/Psx_To_DB-15_REMAP_AF.ino:132
    DDRD = 0;
    delay(16);
    DDRD |= 1;
    delay(16);
  }
TRO = EEPROM.read(0);
     50a:	90 e0       	ldi	r25, 0x00	; 0
     50c:	80 e0       	ldi	r24, 0x00	; 0
     50e:	3c df       	rcall	.-392    	; 0x388 <EEPROMClass::read(int) [clone .isra.0]>
     510:	90 e0       	ldi	r25, 0x00	; 0
     512:	90 93 0b 01 	sts	0x010B, r25	; 0x80010b <TRO+0x1>
     516:	80 93 0a 01 	sts	0x010A, r24	; 0x80010a <TRO>
Z:\Projects\PS1\PSX-Controller-DB-15-Adapter\Code\Psx_To_DB-15_REMAP_AF/Psx_To_DB-15_REMAP_AF.ino:133
SQO = EEPROM.read(1);
     51a:	81 e0       	ldi	r24, 0x01	; 1
     51c:	90 e0       	ldi	r25, 0x00	; 0
     51e:	34 df       	rcall	.-408    	; 0x388 <EEPROMClass::read(int) [clone .isra.0]>
     520:	90 e0       	ldi	r25, 0x00	; 0
     522:	90 93 09 01 	sts	0x0109, r25	; 0x800109 <SQO+0x1>
     526:	80 93 08 01 	sts	0x0108, r24	; 0x800108 <SQO>
Z:\Projects\PS1\PSX-Controller-DB-15-Adapter\Code\Psx_To_DB-15_REMAP_AF/Psx_To_DB-15_REMAP_AF.ino:134
R2O = EEPROM.read(2);
     52a:	82 e0       	ldi	r24, 0x02	; 2
     52c:	90 e0       	ldi	r25, 0x00	; 0
     52e:	2c df       	rcall	.-424    	; 0x388 <EEPROMClass::read(int) [clone .isra.0]>
     530:	90 e0       	ldi	r25, 0x00	; 0
     532:	90 93 07 01 	sts	0x0107, r25	; 0x800107 <R2O+0x1>
     536:	80 93 06 01 	sts	0x0106, r24	; 0x800106 <R2O>
Z:\Projects\PS1\PSX-Controller-DB-15-Adapter\Code\Psx_To_DB-15_REMAP_AF/Psx_To_DB-15_REMAP_AF.ino:135
OO = EEPROM.read(3);
     53a:	83 e0       	ldi	r24, 0x03	; 3
     53c:	90 e0       	ldi	r25, 0x00	; 0
     53e:	24 df       	rcall	.-440    	; 0x388 <EEPROMClass::read(int) [clone .isra.0]>
     540:	90 e0       	ldi	r25, 0x00	; 0
     542:	90 93 05 01 	sts	0x0105, r25	; 0x800105 <OO+0x1>
     546:	80 93 04 01 	sts	0x0104, r24	; 0x800104 <OO>
Z:\Projects\PS1\PSX-Controller-DB-15-Adapter\Code\Psx_To_DB-15_REMAP_AF/Psx_To_DB-15_REMAP_AF.ino:136
XO = EEPROM.read(4);
     54a:	84 e0       	ldi	r24, 0x04	; 4
     54c:	90 e0       	ldi	r25, 0x00	; 0
     54e:	1c df       	rcall	.-456    	; 0x388 <EEPROMClass::read(int) [clone .isra.0]>
     550:	90 e0       	ldi	r25, 0x00	; 0
     552:	90 93 03 01 	sts	0x0103, r25	; 0x800103 <XO+0x1>
     556:	80 93 02 01 	sts	0x0102, r24	; 0x800102 <XO>
Z:\Projects\PS1\PSX-Controller-DB-15-Adapter\Code\Psx_To_DB-15_REMAP_AF/Psx_To_DB-15_REMAP_AF.ino:137
R1O = EEPROM.read(5);
     55a:	85 e0       	ldi	r24, 0x05	; 5
     55c:	90 e0       	ldi	r25, 0x00	; 0
     55e:	14 df       	rcall	.-472    	; 0x388 <EEPROMClass::read(int) [clone .isra.0]>
     560:	90 e0       	ldi	r25, 0x00	; 0
     562:	90 93 01 01 	sts	0x0101, r25	; 0x800101 <__data_start+0x1>
     566:	80 93 00 01 	sts	0x0100, r24	; 0x800100 <__data_start>
Z:\Projects\PS1\PSX-Controller-DB-15-Adapter\Code\Psx_To_DB-15_REMAP_AF/Psx_To_DB-15_REMAP_AF.ino:138
L1O = EEPROM.read(13);
     56a:	8d e0       	ldi	r24, 0x0D	; 13
     56c:	90 e0       	ldi	r25, 0x00	; 0
     56e:	0c df       	rcall	.-488    	; 0x388 <EEPROMClass::read(int) [clone .isra.0]>
     570:	90 e0       	ldi	r25, 0x00	; 0
     572:	90 93 1d 01 	sts	0x011D, r25	; 0x80011d <L1O+0x1>
     576:	80 93 1c 01 	sts	0x011C, r24	; 0x80011c <L1O>
Z:\Projects\PS1\PSX-Controller-DB-15-Adapter\Code\Psx_To_DB-15_REMAP_AF/Psx_To_DB-15_REMAP_AF.ino:139
L2O = EEPROM.read(14);
     57a:	8e e0       	ldi	r24, 0x0E	; 14
     57c:	90 e0       	ldi	r25, 0x00	; 0
     57e:	04 df       	rcall	.-504    	; 0x388 <EEPROMClass::read(int) [clone .isra.0]>
     580:	90 e0       	ldi	r25, 0x00	; 0
     582:	90 93 1b 01 	sts	0x011B, r25	; 0x80011b <L2O+0x1>
     586:	80 93 1a 01 	sts	0x011A, r24	; 0x80011a <L2O>
Z:\Projects\PS1\PSX-Controller-DB-15-Adapter\Code\Psx_To_DB-15_REMAP_AF/Psx_To_DB-15_REMAP_AF.ino:140
TRA = EEPROM.read(7);
     58a:	87 e0       	ldi	r24, 0x07	; 7
     58c:	90 e0       	ldi	r25, 0x00	; 0
     58e:	fc de       	rcall	.-520    	; 0x388 <EEPROMClass::read(int) [clone .isra.0]>
     590:	90 e0       	ldi	r25, 0x00	; 0
     592:	90 93 51 01 	sts	0x0151, r25	; 0x800151 <TRA+0x1>
     596:	80 93 50 01 	sts	0x0150, r24	; 0x800150 <TRA>
Z:\Projects\PS1\PSX-Controller-DB-15-Adapter\Code\Psx_To_DB-15_REMAP_AF/Psx_To_DB-15_REMAP_AF.ino:141
SQA = EEPROM.read(8);
     59a:	88 e0       	ldi	r24, 0x08	; 8
     59c:	90 e0       	ldi	r25, 0x00	; 0
     59e:	f4 de       	rcall	.-536    	; 0x388 <EEPROMClass::read(int) [clone .isra.0]>
     5a0:	90 e0       	ldi	r25, 0x00	; 0
     5a2:	90 93 4f 01 	sts	0x014F, r25	; 0x80014f <SQA+0x1>
     5a6:	80 93 4e 01 	sts	0x014E, r24	; 0x80014e <SQA>
Z:\Projects\PS1\PSX-Controller-DB-15-Adapter\Code\Psx_To_DB-15_REMAP_AF/Psx_To_DB-15_REMAP_AF.ino:142
R2A = EEPROM.read(9);
     5aa:	89 e0       	ldi	r24, 0x09	; 9
     5ac:	90 e0       	ldi	r25, 0x00	; 0
     5ae:	ec de       	rcall	.-552    	; 0x388 <EEPROMClass::read(int) [clone .isra.0]>
     5b0:	90 e0       	ldi	r25, 0x00	; 0
     5b2:	90 93 4d 01 	sts	0x014D, r25	; 0x80014d <R2A+0x1>
     5b6:	80 93 4c 01 	sts	0x014C, r24	; 0x80014c <R2A>
Z:\Projects\PS1\PSX-Controller-DB-15-Adapter\Code\Psx_To_DB-15_REMAP_AF/Psx_To_DB-15_REMAP_AF.ino:143
OA = EEPROM.read(10);
     5ba:	8a e0       	ldi	r24, 0x0A	; 10
     5bc:	90 e0       	ldi	r25, 0x00	; 0
     5be:	e4 de       	rcall	.-568    	; 0x388 <EEPROMClass::read(int) [clone .isra.0]>
     5c0:	90 e0       	ldi	r25, 0x00	; 0
     5c2:	90 93 4b 01 	sts	0x014B, r25	; 0x80014b <OA+0x1>
     5c6:	80 93 4a 01 	sts	0x014A, r24	; 0x80014a <OA>
Z:\Projects\PS1\PSX-Controller-DB-15-Adapter\Code\Psx_To_DB-15_REMAP_AF/Psx_To_DB-15_REMAP_AF.ino:144
XA = EEPROM.read(11);
     5ca:	8b e0       	ldi	r24, 0x0B	; 11
     5cc:	90 e0       	ldi	r25, 0x00	; 0
     5ce:	dc de       	rcall	.-584    	; 0x388 <EEPROMClass::read(int) [clone .isra.0]>
     5d0:	90 e0       	ldi	r25, 0x00	; 0
     5d2:	90 93 49 01 	sts	0x0149, r25	; 0x800149 <XA+0x1>
     5d6:	80 93 48 01 	sts	0x0148, r24	; 0x800148 <XA>
Z:\Projects\PS1\PSX-Controller-DB-15-Adapter\Code\Psx_To_DB-15_REMAP_AF/Psx_To_DB-15_REMAP_AF.ino:145
R1A = EEPROM.read(12);
     5da:	8c e0       	ldi	r24, 0x0C	; 12
     5dc:	90 e0       	ldi	r25, 0x00	; 0
     5de:	d4 de       	rcall	.-600    	; 0x388 <EEPROMClass::read(int) [clone .isra.0]>
     5e0:	90 e0       	ldi	r25, 0x00	; 0
     5e2:	90 93 47 01 	sts	0x0147, r25	; 0x800147 <R1A+0x1>
     5e6:	80 93 46 01 	sts	0x0146, r24	; 0x800146 <R1A>
Z:\Projects\PS1\PSX-Controller-DB-15-Adapter\Code\Psx_To_DB-15_REMAP_AF/Psx_To_DB-15_REMAP_AF.ino:146
L1A = EEPROM.read(15);
     5ea:	8f e0       	ldi	r24, 0x0F	; 15
     5ec:	90 e0       	ldi	r25, 0x00	; 0
     5ee:	cc de       	rcall	.-616    	; 0x388 <EEPROMClass::read(int) [clone .isra.0]>
     5f0:	90 e0       	ldi	r25, 0x00	; 0
     5f2:	90 93 45 01 	sts	0x0145, r25	; 0x800145 <L1A+0x1>
     5f6:	80 93 44 01 	sts	0x0144, r24	; 0x800144 <L1A>
Z:\Projects\PS1\PSX-Controller-DB-15-Adapter\Code\Psx_To_DB-15_REMAP_AF/Psx_To_DB-15_REMAP_AF.ino:147
L2A = EEPROM.read(16);
     5fa:	80 e1       	ldi	r24, 0x10	; 16
     5fc:	90 e0       	ldi	r25, 0x00	; 0
     5fe:	c4 de       	rcall	.-632    	; 0x388 <EEPROMClass::read(int) [clone .isra.0]>
     600:	90 e0       	ldi	r25, 0x00	; 0
     602:	90 93 43 01 	sts	0x0143, r25	; 0x800143 <L2A+0x1>
     606:	80 93 42 01 	sts	0x0142, r24	; 0x800142 <L2A>
Z:\Projects\PS1\PSX-Controller-DB-15-Adapter\Code\Psx_To_DB-15_REMAP_AF/Psx_To_DB-15_REMAP_AF.ino:149
  }
if (HASmode == 1){
     60a:	80 91 14 01 	lds	r24, 0x0114	; 0x800114 <HASmode>
     60e:	90 91 15 01 	lds	r25, 0x0115	; 0x800115 <HASmode+0x1>
     612:	01 97       	sbiw	r24, 0x01	; 1
     614:	39 f4       	brne	.+14     	; 0x624 <__stack+0x125>
Z:\Projects\PS1\PSX-Controller-DB-15-Adapter\Code\Psx_To_DB-15_REMAP_AF/Psx_To_DB-15_REMAP_AF.ino:150
   DDRD |= 1;
     616:	50 9a       	sbi	0x0a, 0	; 10
Z:\Projects\PS1\PSX-Controller-DB-15-Adapter\Code\Psx_To_DB-15_REMAP_AF/Psx_To_DB-15_REMAP_AF.ino:151
   delay(1000);
     618:	68 ee       	ldi	r22, 0xE8	; 232
     61a:	73 e0       	ldi	r23, 0x03	; 3
     61c:	80 e0       	ldi	r24, 0x00	; 0
     61e:	90 e0       	ldi	r25, 0x00	; 0
     620:	82 de       	rcall	.-764    	; 0x326 <delay>
Z:\Projects\PS1\PSX-Controller-DB-15-Adapter\Code\Psx_To_DB-15_REMAP_AF/Psx_To_DB-15_REMAP_AF.ino:152
   DDRD = 0;
     622:	1a b8       	out	0x0a, r1	; 10
scaninputs():
Z:\Projects\PS1\PSX-Controller-DB-15-Adapter\Code\Psx_To_DB-15_REMAP_AF/Psx_To_DB-15_REMAP_AF.ino:276

data = Psx.read();                                      // Psx.read() initiates the PSX controller and returns

if (data & psxTri){
  TR = TRO; 
  TRC = 1;  
     624:	c1 e0       	ldi	r28, 0x01	; 1
     626:	d0 e0       	ldi	r29, 0x00	; 0
buttoncombos():
Z:\Projects\PS1\PSX-Controller-DB-15-Adapter\Code\Psx_To_DB-15_REMAP_AF/Psx_To_DB-15_REMAP_AF.ino:399
   delay(1000);
   DDRD = 0;
   DDRB = 0;                      // Stores the current output map for each input
SQO = 1;                     
TRO = 2;
R1O = 3;
     628:	93 e0       	ldi	r25, 0x03	; 3
     62a:	29 2e       	mov	r2, r25
     62c:	31 2c       	mov	r3, r1
Z:\Projects\PS1\PSX-Controller-DB-15-Adapter\Code\Psx_To_DB-15_REMAP_AF/Psx_To_DB-15_REMAP_AF.ino:400
XO = 4;
     62e:	24 e0       	ldi	r18, 0x04	; 4
     630:	42 2e       	mov	r4, r18
     632:	51 2c       	mov	r5, r1
Z:\Projects\PS1\PSX-Controller-DB-15-Adapter\Code\Psx_To_DB-15_REMAP_AF/Psx_To_DB-15_REMAP_AF.ino:401
OO = 5;
     634:	35 e0       	ldi	r19, 0x05	; 5
     636:	63 2e       	mov	r6, r19
     638:	71 2c       	mov	r7, r1
Z:\Projects\PS1\PSX-Controller-DB-15-Adapter\Code\Psx_To_DB-15_REMAP_AF/Psx_To_DB-15_REMAP_AF.ino:402
R2O = 6;
     63a:	46 e0       	ldi	r20, 0x06	; 6
     63c:	a4 2e       	mov	r10, r20
     63e:	b1 2c       	mov	r11, r1
scaninputs():
Z:\Projects\PS1\PSX-Controller-DB-15-Adapter\Code\Psx_To_DB-15_REMAP_AF/Psx_To_DB-15_REMAP_AF.ino:229
  }
}

void scaninputs(){                                   // Six Button Mode maps all buttons to a standard six button layout. Useful for most games with standard control schemes. 

TRP = TRC;                      // new previous state variables = old current state variables
     640:	80 91 3e 01 	lds	r24, 0x013E	; 0x80013e <TRC>
     644:	90 91 3f 01 	lds	r25, 0x013F	; 0x80013f <TRC+0x1>
     648:	90 93 3d 01 	sts	0x013D, r25	; 0x80013d <TRP+0x1>
     64c:	80 93 3c 01 	sts	0x013C, r24	; 0x80013c <TRP>
Z:\Projects\PS1\PSX-Controller-DB-15-Adapter\Code\Psx_To_DB-15_REMAP_AF/Psx_To_DB-15_REMAP_AF.ino:230
SQP = SQC;
     650:	80 91 3a 01 	lds	r24, 0x013A	; 0x80013a <SQC>
     654:	90 91 3b 01 	lds	r25, 0x013B	; 0x80013b <SQC+0x1>
     658:	90 93 39 01 	sts	0x0139, r25	; 0x800139 <SQP+0x1>
     65c:	80 93 38 01 	sts	0x0138, r24	; 0x800138 <SQP>
Z:\Projects\PS1\PSX-Controller-DB-15-Adapter\Code\Psx_To_DB-15_REMAP_AF/Psx_To_DB-15_REMAP_AF.ino:231
R2P = R2C;
     660:	80 91 36 01 	lds	r24, 0x0136	; 0x800136 <R2C>
     664:	90 91 37 01 	lds	r25, 0x0137	; 0x800137 <R2C+0x1>
     668:	90 93 35 01 	sts	0x0135, r25	; 0x800135 <R2P+0x1>
     66c:	80 93 34 01 	sts	0x0134, r24	; 0x800134 <R2P>
Z:\Projects\PS1\PSX-Controller-DB-15-Adapter\Code\Psx_To_DB-15_REMAP_AF/Psx_To_DB-15_REMAP_AF.ino:232
OP = OC;
     670:	80 91 32 01 	lds	r24, 0x0132	; 0x800132 <OC>
     674:	90 91 33 01 	lds	r25, 0x0133	; 0x800133 <OC+0x1>
     678:	90 93 31 01 	sts	0x0131, r25	; 0x800131 <OP+0x1>
     67c:	80 93 30 01 	sts	0x0130, r24	; 0x800130 <OP>
Z:\Projects\PS1\PSX-Controller-DB-15-Adapter\Code\Psx_To_DB-15_REMAP_AF/Psx_To_DB-15_REMAP_AF.ino:233
XP = XC;
     680:	80 91 2e 01 	lds	r24, 0x012E	; 0x80012e <XC>
     684:	90 91 2f 01 	lds	r25, 0x012F	; 0x80012f <XC+0x1>
     688:	90 93 2d 01 	sts	0x012D, r25	; 0x80012d <XP+0x1>
     68c:	80 93 2c 01 	sts	0x012C, r24	; 0x80012c <XP>
Z:\Projects\PS1\PSX-Controller-DB-15-Adapter\Code\Psx_To_DB-15_REMAP_AF/Psx_To_DB-15_REMAP_AF.ino:234
R1P = R1C;
     690:	c0 90 2a 01 	lds	r12, 0x012A	; 0x80012a <R1C>
     694:	d0 90 2b 01 	lds	r13, 0x012B	; 0x80012b <R1C+0x1>
     698:	d0 92 29 01 	sts	0x0129, r13	; 0x800129 <R1P+0x1>
     69c:	c0 92 28 01 	sts	0x0128, r12	; 0x800128 <R1P>
Z:\Projects\PS1\PSX-Controller-DB-15-Adapter\Code\Psx_To_DB-15_REMAP_AF/Psx_To_DB-15_REMAP_AF.ino:235
STP = STC;
     6a0:	80 91 0e 01 	lds	r24, 0x010E	; 0x80010e <STC>
     6a4:	90 91 0f 01 	lds	r25, 0x010F	; 0x80010f <STC+0x1>
     6a8:	90 93 1f 01 	sts	0x011F, r25	; 0x80011f <STP+0x1>
     6ac:	80 93 1e 01 	sts	0x011E, r24	; 0x80011e <STP>
Z:\Projects\PS1\PSX-Controller-DB-15-Adapter\Code\Psx_To_DB-15_REMAP_AF/Psx_To_DB-15_REMAP_AF.ino:236
SLP = SLC;
     6b0:	e0 90 0c 01 	lds	r14, 0x010C	; 0x80010c <__data_end>
     6b4:	f0 90 0d 01 	lds	r15, 0x010D	; 0x80010d <__data_end+0x1>
     6b8:	f0 92 19 01 	sts	0x0119, r15	; 0x800119 <SLP+0x1>
     6bc:	e0 92 18 01 	sts	0x0118, r14	; 0x800118 <SLP>
Z:\Projects\PS1\PSX-Controller-DB-15-Adapter\Code\Psx_To_DB-15_REMAP_AF/Psx_To_DB-15_REMAP_AF.ino:237
L1P = L1C;
     6c0:	80 90 26 01 	lds	r8, 0x0126	; 0x800126 <L1C>
     6c4:	90 90 27 01 	lds	r9, 0x0127	; 0x800127 <L1C+0x1>
     6c8:	90 92 25 01 	sts	0x0125, r9	; 0x800125 <L1P+0x1>
     6cc:	80 92 24 01 	sts	0x0124, r8	; 0x800124 <L1P>
Z:\Projects\PS1\PSX-Controller-DB-15-Adapter\Code\Psx_To_DB-15_REMAP_AF/Psx_To_DB-15_REMAP_AF.ino:238
L2P = L2C;
     6d0:	80 91 22 01 	lds	r24, 0x0122	; 0x800122 <L2C>
     6d4:	90 91 23 01 	lds	r25, 0x0123	; 0x800123 <L2C+0x1>
     6d8:	90 93 21 01 	sts	0x0121, r25	; 0x800121 <L2P+0x1>
     6dc:	80 93 20 01 	sts	0x0120, r24	; 0x800120 <L2P>
Z:\Projects\PS1\PSX-Controller-DB-15-Adapter\Code\Psx_To_DB-15_REMAP_AF/Psx_To_DB-15_REMAP_AF.ino:240
// Reset All Variables
outputb = 0;                   // Resets Port Maniplulation Variables
     6e0:	10 92 75 01 	sts	0x0175, r1	; 0x800175 <outputb+0x1>
     6e4:	10 92 74 01 	sts	0x0174, r1	; 0x800174 <outputb>
Z:\Projects\PS1\PSX-Controller-DB-15-Adapter\Code\Psx_To_DB-15_REMAP_AF/Psx_To_DB-15_REMAP_AF.ino:241
outputd = 0;
     6e8:	10 92 73 01 	sts	0x0173, r1	; 0x800173 <outputd+0x1>
     6ec:	10 92 72 01 	sts	0x0172, r1	; 0x800172 <outputd>
Z:\Projects\PS1\PSX-Controller-DB-15-Adapter\Code\Psx_To_DB-15_REMAP_AF/Psx_To_DB-15_REMAP_AF.ino:246
UP = 0;                        // Resets all button state variables
DN = 0;
LT = 0;
RT = 0;
SL = 0;
     6f0:	10 92 5f 01 	sts	0x015F, r1	; 0x80015f <SL+0x1>
     6f4:	10 92 5e 01 	sts	0x015E, r1	; 0x80015e <SL>
Z:\Projects\PS1\PSX-Controller-DB-15-Adapter\Code\Psx_To_DB-15_REMAP_AF/Psx_To_DB-15_REMAP_AF.ino:247
ST = 0;
     6f8:	10 92 61 01 	sts	0x0161, r1	; 0x800161 <ST+0x1>
     6fc:	10 92 60 01 	sts	0x0160, r1	; 0x800160 <ST>
Z:\Projects\PS1\PSX-Controller-DB-15-Adapter\Code\Psx_To_DB-15_REMAP_AF/Psx_To_DB-15_REMAP_AF.ino:248
NB = 0;
     700:	10 92 41 01 	sts	0x0141, r1	; 0x800141 <NB+0x1>
     704:	10 92 40 01 	sts	0x0140, r1	; 0x800140 <NB>
Z:\Projects\PS1\PSX-Controller-DB-15-Adapter\Code\Psx_To_DB-15_REMAP_AF/Psx_To_DB-15_REMAP_AF.ino:249
STC = 0;
     708:	10 92 0f 01 	sts	0x010F, r1	; 0x80010f <STC+0x1>
     70c:	10 92 0e 01 	sts	0x010E, r1	; 0x80010e <STC>
Z:\Projects\PS1\PSX-Controller-DB-15-Adapter\Code\Psx_To_DB-15_REMAP_AF/Psx_To_DB-15_REMAP_AF.ino:250
SLC = 0;
     710:	10 92 0d 01 	sts	0x010D, r1	; 0x80010d <__data_end+0x1>
     714:	10 92 0c 01 	sts	0x010C, r1	; 0x80010c <__data_end>
Z:\Projects\PS1\PSX-Controller-DB-15-Adapter\Code\Psx_To_DB-15_REMAP_AF/Psx_To_DB-15_REMAP_AF.ino:255
UPC = 0;
DNC = 0;
LTC = 0;
RTC = 0;
TRC = 0;
     718:	10 92 3f 01 	sts	0x013F, r1	; 0x80013f <TRC+0x1>
     71c:	10 92 3e 01 	sts	0x013E, r1	; 0x80013e <TRC>
Z:\Projects\PS1\PSX-Controller-DB-15-Adapter\Code\Psx_To_DB-15_REMAP_AF/Psx_To_DB-15_REMAP_AF.ino:256
SQC = 0;
     720:	10 92 3b 01 	sts	0x013B, r1	; 0x80013b <SQC+0x1>
     724:	10 92 3a 01 	sts	0x013A, r1	; 0x80013a <SQC>
Z:\Projects\PS1\PSX-Controller-DB-15-Adapter\Code\Psx_To_DB-15_REMAP_AF/Psx_To_DB-15_REMAP_AF.ino:257
R1C = 0;
     728:	10 92 2b 01 	sts	0x012B, r1	; 0x80012b <R1C+0x1>
     72c:	10 92 2a 01 	sts	0x012A, r1	; 0x80012a <R1C>
Z:\Projects\PS1\PSX-Controller-DB-15-Adapter\Code\Psx_To_DB-15_REMAP_AF/Psx_To_DB-15_REMAP_AF.ino:258
L1C = 0;
     730:	10 92 27 01 	sts	0x0127, r1	; 0x800127 <L1C+0x1>
     734:	10 92 26 01 	sts	0x0126, r1	; 0x800126 <L1C>
Z:\Projects\PS1\PSX-Controller-DB-15-Adapter\Code\Psx_To_DB-15_REMAP_AF/Psx_To_DB-15_REMAP_AF.ino:259
L2C = 0;
     738:	10 92 23 01 	sts	0x0123, r1	; 0x800123 <L2C+0x1>
     73c:	10 92 22 01 	sts	0x0122, r1	; 0x800122 <L2C>
Z:\Projects\PS1\PSX-Controller-DB-15-Adapter\Code\Psx_To_DB-15_REMAP_AF/Psx_To_DB-15_REMAP_AF.ino:260
OC = 0;
     740:	10 92 33 01 	sts	0x0133, r1	; 0x800133 <OC+0x1>
     744:	10 92 32 01 	sts	0x0132, r1	; 0x800132 <OC>
Z:\Projects\PS1\PSX-Controller-DB-15-Adapter\Code\Psx_To_DB-15_REMAP_AF/Psx_To_DB-15_REMAP_AF.ino:261
XC = 0;
     748:	10 92 2f 01 	sts	0x012F, r1	; 0x80012f <XC+0x1>
     74c:	10 92 2e 01 	sts	0x012E, r1	; 0x80012e <XC>
Z:\Projects\PS1\PSX-Controller-DB-15-Adapter\Code\Psx_To_DB-15_REMAP_AF/Psx_To_DB-15_REMAP_AF.ino:262
R2C = 0;
     750:	10 92 37 01 	sts	0x0137, r1	; 0x800137 <R2C+0x1>
     754:	10 92 36 01 	sts	0x0136, r1	; 0x800136 <R2C>
Z:\Projects\PS1\PSX-Controller-DB-15-Adapter\Code\Psx_To_DB-15_REMAP_AF/Psx_To_DB-15_REMAP_AF.ino:263
TR = 0;
     758:	10 92 6f 01 	sts	0x016F, r1	; 0x80016f <TR+0x1>
     75c:	10 92 6e 01 	sts	0x016E, r1	; 0x80016e <TR>
Z:\Projects\PS1\PSX-Controller-DB-15-Adapter\Code\Psx_To_DB-15_REMAP_AF/Psx_To_DB-15_REMAP_AF.ino:264
SQ = 0;
     760:	10 92 71 01 	sts	0x0171, r1	; 0x800171 <SQ+0x1>
     764:	10 92 70 01 	sts	0x0170, r1	; 0x800170 <SQ>
Z:\Projects\PS1\PSX-Controller-DB-15-Adapter\Code\Psx_To_DB-15_REMAP_AF/Psx_To_DB-15_REMAP_AF.ino:265
R1 = 0;
     768:	10 92 6d 01 	sts	0x016D, r1	; 0x80016d <R1+0x1>
     76c:	10 92 6c 01 	sts	0x016C, r1	; 0x80016c <R1>
Z:\Projects\PS1\PSX-Controller-DB-15-Adapter\Code\Psx_To_DB-15_REMAP_AF/Psx_To_DB-15_REMAP_AF.ino:266
O = 0;
     770:	10 92 6b 01 	sts	0x016B, r1	; 0x80016b <O+0x1>
     774:	10 92 6a 01 	sts	0x016A, r1	; 0x80016a <O>
Z:\Projects\PS1\PSX-Controller-DB-15-Adapter\Code\Psx_To_DB-15_REMAP_AF/Psx_To_DB-15_REMAP_AF.ino:267
X = 0;
     778:	10 92 69 01 	sts	0x0169, r1	; 0x800169 <X+0x1>
     77c:	10 92 68 01 	sts	0x0168, r1	; 0x800168 <X>
Z:\Projects\PS1\PSX-Controller-DB-15-Adapter\Code\Psx_To_DB-15_REMAP_AF/Psx_To_DB-15_REMAP_AF.ino:268
R2 = 0;
     780:	10 92 67 01 	sts	0x0167, r1	; 0x800167 <R2+0x1>
     784:	10 92 66 01 	sts	0x0166, r1	; 0x800166 <R2>
Z:\Projects\PS1\PSX-Controller-DB-15-Adapter\Code\Psx_To_DB-15_REMAP_AF/Psx_To_DB-15_REMAP_AF.ino:269
L1 = 0;
     788:	10 92 65 01 	sts	0x0165, r1	; 0x800165 <L1+0x1>
     78c:	10 92 64 01 	sts	0x0164, r1	; 0x800164 <L1>
Z:\Projects\PS1\PSX-Controller-DB-15-Adapter\Code\Psx_To_DB-15_REMAP_AF/Psx_To_DB-15_REMAP_AF.ino:270
L2 = 0;
     790:	10 92 63 01 	sts	0x0163, r1	; 0x800163 <L2+0x1>
     794:	10 92 62 01 	sts	0x0162, r1	; 0x800162 <L2>
read():
c:\Users\caleb\Dropbox\My PC (DESKTOP-ET1MHVE)\Documents\Arduino\libraries\arduino-psx-master/Psx.cpp:83
}


unsigned int Psx::read()
{
	digitalWrite(_attPin, LOW);
     798:	60 e0       	ldi	r22, 0x00	; 0
     79a:	80 91 85 01 	lds	r24, 0x0185	; 0x800185 <Psx+0x2>
     79e:	c1 dc       	rcall	.-1662   	; 0x122 <digitalWrite>
c:\Users\caleb\Dropbox\My PC (DESKTOP-ET1MHVE)\Documents\Arduino\libraries\arduino-psx-master/Psx.cpp:85

	shift(0x01);
     7a0:	81 e0       	ldi	r24, 0x01	; 1
     7a2:	28 dd       	rcall	.-1456   	; 0x1f4 <Psx::shift(unsigned char) [clone .constprop.2]>
c:\Users\caleb\Dropbox\My PC (DESKTOP-ET1MHVE)\Documents\Arduino\libraries\arduino-psx-master/Psx.cpp:86
	shift(0x42);
     7a4:	82 e4       	ldi	r24, 0x42	; 66
     7a6:	26 dd       	rcall	.-1460   	; 0x1f4 <Psx::shift(unsigned char) [clone .constprop.2]>
c:\Users\caleb\Dropbox\My PC (DESKTOP-ET1MHVE)\Documents\Arduino\libraries\arduino-psx-master/Psx.cpp:87
	shift(0xFF);
     7a8:	8f ef       	ldi	r24, 0xFF	; 255
     7aa:	24 dd       	rcall	.-1464   	; 0x1f4 <Psx::shift(unsigned char) [clone .constprop.2]>
c:\Users\caleb\Dropbox\My PC (DESKTOP-ET1MHVE)\Documents\Arduino\libraries\arduino-psx-master/Psx.cpp:89

	_data1 = ~shift(0xFF);
     7ac:	8f ef       	ldi	r24, 0xFF	; 255
     7ae:	22 dd       	rcall	.-1468   	; 0x1f4 <Psx::shift(unsigned char) [clone .constprop.2]>
     7b0:	80 95       	com	r24
     7b2:	80 93 8b 01 	sts	0x018B, r24	; 0x80018b <Psx+0x8>
c:\Users\caleb\Dropbox\My PC (DESKTOP-ET1MHVE)\Documents\Arduino\libraries\arduino-psx-master/Psx.cpp:90
	_data2 = ~shift(0xFF);
     7b6:	8f ef       	ldi	r24, 0xFF	; 255
     7b8:	1d dd       	rcall	.-1478   	; 0x1f4 <Psx::shift(unsigned char) [clone .constprop.2]>
     7ba:	80 95       	com	r24
     7bc:	80 93 8c 01 	sts	0x018C, r24	; 0x80018c <Psx+0x9>
c:\Users\caleb\Dropbox\My PC (DESKTOP-ET1MHVE)\Documents\Arduino\libraries\arduino-psx-master/Psx.cpp:92

	digitalWrite(_attPin, HIGH);
     7c0:	61 e0       	ldi	r22, 0x01	; 1
     7c2:	80 91 85 01 	lds	r24, 0x0185	; 0x800185 <Psx+0x2>
     7c6:	ad dc       	rcall	.-1702   	; 0x122 <digitalWrite>
     7c8:	80 91 8b 01 	lds	r24, 0x018B	; 0x80018b <Psx+0x8>
     7cc:	90 91 8c 01 	lds	r25, 0x018C	; 0x80018c <Psx+0x9>
c:\Users\caleb\Dropbox\My PC (DESKTOP-ET1MHVE)\Documents\Arduino\libraries\arduino-psx-master/Psx.cpp:94

	_dataOut = (_data2 << 8) | _data1;
     7d0:	90 93 8e 01 	sts	0x018E, r25	; 0x80018e <Psx+0xb>
     7d4:	80 93 8d 01 	sts	0x018D, r24	; 0x80018d <Psx+0xa>
scaninputs():
Z:\Projects\PS1\PSX-Controller-DB-15-Adapter\Code\Psx_To_DB-15_REMAP_AF/Psx_To_DB-15_REMAP_AF.ino:274

data = Psx.read();                                      // Psx.read() initiates the PSX controller and returns

if (data & psxTri){
     7d8:	93 ff       	sbrs	r25, 3
     7da:	10 c0       	rjmp	.+32     	; 0x7fc <__stack+0x2fd>
Z:\Projects\PS1\PSX-Controller-DB-15-Adapter\Code\Psx_To_DB-15_REMAP_AF/Psx_To_DB-15_REMAP_AF.ino:275
  TR = TRO; 
     7dc:	20 91 0a 01 	lds	r18, 0x010A	; 0x80010a <TRO>
     7e0:	30 91 0b 01 	lds	r19, 0x010B	; 0x80010b <TRO+0x1>
     7e4:	30 93 6f 01 	sts	0x016F, r19	; 0x80016f <TR+0x1>
     7e8:	20 93 6e 01 	sts	0x016E, r18	; 0x80016e <TR>
Z:\Projects\PS1\PSX-Controller-DB-15-Adapter\Code\Psx_To_DB-15_REMAP_AF/Psx_To_DB-15_REMAP_AF.ino:276
  TRC = 1;  
     7ec:	d0 93 3f 01 	sts	0x013F, r29	; 0x80013f <TRC+0x1>
     7f0:	c0 93 3e 01 	sts	0x013E, r28	; 0x80013e <TRC>
Z:\Projects\PS1\PSX-Controller-DB-15-Adapter\Code\Psx_To_DB-15_REMAP_AF/Psx_To_DB-15_REMAP_AF.ino:277
  NB = (NB + 1);  
     7f4:	d0 93 41 01 	sts	0x0141, r29	; 0x800141 <NB+0x1>
     7f8:	c0 93 40 01 	sts	0x0140, r28	; 0x800140 <NB>
Z:\Projects\PS1\PSX-Controller-DB-15-Adapter\Code\Psx_To_DB-15_REMAP_AF/Psx_To_DB-15_REMAP_AF.ino:279
}                               
if (data & psxR1){
     7fc:	94 ff       	sbrs	r25, 4
     7fe:	16 c0       	rjmp	.+44     	; 0x82c <__stack+0x32d>
Z:\Projects\PS1\PSX-Controller-DB-15-Adapter\Code\Psx_To_DB-15_REMAP_AF/Psx_To_DB-15_REMAP_AF.ino:280
  R1 = R1O; 
     800:	20 91 00 01 	lds	r18, 0x0100	; 0x800100 <__data_start>
     804:	30 91 01 01 	lds	r19, 0x0101	; 0x800101 <__data_start+0x1>
     808:	30 93 6d 01 	sts	0x016D, r19	; 0x80016d <R1+0x1>
     80c:	20 93 6c 01 	sts	0x016C, r18	; 0x80016c <R1>
Z:\Projects\PS1\PSX-Controller-DB-15-Adapter\Code\Psx_To_DB-15_REMAP_AF/Psx_To_DB-15_REMAP_AF.ino:281
  R1C = 1;  
     810:	d0 93 2b 01 	sts	0x012B, r29	; 0x80012b <R1C+0x1>
     814:	c0 93 2a 01 	sts	0x012A, r28	; 0x80012a <R1C>
Z:\Projects\PS1\PSX-Controller-DB-15-Adapter\Code\Psx_To_DB-15_REMAP_AF/Psx_To_DB-15_REMAP_AF.ino:282
  NB = (NB + 1);
     818:	20 91 40 01 	lds	r18, 0x0140	; 0x800140 <NB>
     81c:	30 91 41 01 	lds	r19, 0x0141	; 0x800141 <NB+0x1>
     820:	2f 5f       	subi	r18, 0xFF	; 255
     822:	3f 4f       	sbci	r19, 0xFF	; 255
     824:	30 93 41 01 	sts	0x0141, r19	; 0x800141 <NB+0x1>
     828:	20 93 40 01 	sts	0x0140, r18	; 0x800140 <NB>
Z:\Projects\PS1\PSX-Controller-DB-15-Adapter\Code\Psx_To_DB-15_REMAP_AF/Psx_To_DB-15_REMAP_AF.ino:284
}
if (data & psxL1){
     82c:	95 ff       	sbrs	r25, 5
     82e:	16 c0       	rjmp	.+44     	; 0x85c <__stack+0x35d>
Z:\Projects\PS1\PSX-Controller-DB-15-Adapter\Code\Psx_To_DB-15_REMAP_AF/Psx_To_DB-15_REMAP_AF.ino:285
  L1 = L1O; 
     830:	20 91 1c 01 	lds	r18, 0x011C	; 0x80011c <L1O>
     834:	30 91 1d 01 	lds	r19, 0x011D	; 0x80011d <L1O+0x1>
     838:	30 93 65 01 	sts	0x0165, r19	; 0x800165 <L1+0x1>
     83c:	20 93 64 01 	sts	0x0164, r18	; 0x800164 <L1>
Z:\Projects\PS1\PSX-Controller-DB-15-Adapter\Code\Psx_To_DB-15_REMAP_AF/Psx_To_DB-15_REMAP_AF.ino:286
  L1C = 1;  
     840:	d0 93 27 01 	sts	0x0127, r29	; 0x800127 <L1C+0x1>
     844:	c0 93 26 01 	sts	0x0126, r28	; 0x800126 <L1C>
Z:\Projects\PS1\PSX-Controller-DB-15-Adapter\Code\Psx_To_DB-15_REMAP_AF/Psx_To_DB-15_REMAP_AF.ino:287
  NB = (NB + 1);
     848:	20 91 40 01 	lds	r18, 0x0140	; 0x800140 <NB>
     84c:	30 91 41 01 	lds	r19, 0x0141	; 0x800141 <NB+0x1>
     850:	2f 5f       	subi	r18, 0xFF	; 255
     852:	3f 4f       	sbci	r19, 0xFF	; 255
     854:	30 93 41 01 	sts	0x0141, r19	; 0x800141 <NB+0x1>
     858:	20 93 40 01 	sts	0x0140, r18	; 0x800140 <NB>
Z:\Projects\PS1\PSX-Controller-DB-15-Adapter\Code\Psx_To_DB-15_REMAP_AF/Psx_To_DB-15_REMAP_AF.ino:289
}
if (data & psxL2){
     85c:	97 ff       	sbrs	r25, 7
     85e:	16 c0       	rjmp	.+44     	; 0x88c <__stack+0x38d>
Z:\Projects\PS1\PSX-Controller-DB-15-Adapter\Code\Psx_To_DB-15_REMAP_AF/Psx_To_DB-15_REMAP_AF.ino:290
  L2 = L2O; 
     860:	20 91 1a 01 	lds	r18, 0x011A	; 0x80011a <L2O>
     864:	30 91 1b 01 	lds	r19, 0x011B	; 0x80011b <L2O+0x1>
     868:	30 93 63 01 	sts	0x0163, r19	; 0x800163 <L2+0x1>
     86c:	20 93 62 01 	sts	0x0162, r18	; 0x800162 <L2>
Z:\Projects\PS1\PSX-Controller-DB-15-Adapter\Code\Psx_To_DB-15_REMAP_AF/Psx_To_DB-15_REMAP_AF.ino:291
  L2C = 1;  
     870:	d0 93 23 01 	sts	0x0123, r29	; 0x800123 <L2C+0x1>
     874:	c0 93 22 01 	sts	0x0122, r28	; 0x800122 <L2C>
Z:\Projects\PS1\PSX-Controller-DB-15-Adapter\Code\Psx_To_DB-15_REMAP_AF/Psx_To_DB-15_REMAP_AF.ino:292
  NB = (NB + 1);
     878:	20 91 40 01 	lds	r18, 0x0140	; 0x800140 <NB>
     87c:	30 91 41 01 	lds	r19, 0x0141	; 0x800141 <NB+0x1>
     880:	2f 5f       	subi	r18, 0xFF	; 255
     882:	3f 4f       	sbci	r19, 0xFF	; 255
     884:	30 93 41 01 	sts	0x0141, r19	; 0x800141 <NB+0x1>
     888:	20 93 40 01 	sts	0x0140, r18	; 0x800140 <NB>
Z:\Projects\PS1\PSX-Controller-DB-15-Adapter\Code\Psx_To_DB-15_REMAP_AF/Psx_To_DB-15_REMAP_AF.ino:294
}
if (data & psxX){
     88c:	91 ff       	sbrs	r25, 1
     88e:	16 c0       	rjmp	.+44     	; 0x8bc <__stack+0x3bd>
Z:\Projects\PS1\PSX-Controller-DB-15-Adapter\Code\Psx_To_DB-15_REMAP_AF/Psx_To_DB-15_REMAP_AF.ino:295
  X = XO; 
     890:	20 91 02 01 	lds	r18, 0x0102	; 0x800102 <XO>
     894:	30 91 03 01 	lds	r19, 0x0103	; 0x800103 <XO+0x1>
     898:	30 93 69 01 	sts	0x0169, r19	; 0x800169 <X+0x1>
     89c:	20 93 68 01 	sts	0x0168, r18	; 0x800168 <X>
Z:\Projects\PS1\PSX-Controller-DB-15-Adapter\Code\Psx_To_DB-15_REMAP_AF/Psx_To_DB-15_REMAP_AF.ino:296
  XC = 1;   
     8a0:	d0 93 2f 01 	sts	0x012F, r29	; 0x80012f <XC+0x1>
     8a4:	c0 93 2e 01 	sts	0x012E, r28	; 0x80012e <XC>
Z:\Projects\PS1\PSX-Controller-DB-15-Adapter\Code\Psx_To_DB-15_REMAP_AF/Psx_To_DB-15_REMAP_AF.ino:297
  NB = (NB + 1); 
     8a8:	20 91 40 01 	lds	r18, 0x0140	; 0x800140 <NB>
     8ac:	30 91 41 01 	lds	r19, 0x0141	; 0x800141 <NB+0x1>
     8b0:	2f 5f       	subi	r18, 0xFF	; 255
     8b2:	3f 4f       	sbci	r19, 0xFF	; 255
     8b4:	30 93 41 01 	sts	0x0141, r19	; 0x800141 <NB+0x1>
     8b8:	20 93 40 01 	sts	0x0140, r18	; 0x800140 <NB>
Z:\Projects\PS1\PSX-Controller-DB-15-Adapter\Code\Psx_To_DB-15_REMAP_AF/Psx_To_DB-15_REMAP_AF.ino:299
}  
if (data & psxStrt) {
     8bc:	84 ff       	sbrs	r24, 4
     8be:	08 c0       	rjmp	.+16     	; 0x8d0 <__stack+0x3d1>
Z:\Projects\PS1\PSX-Controller-DB-15-Adapter\Code\Psx_To_DB-15_REMAP_AF/Psx_To_DB-15_REMAP_AF.ino:300
  ST = 1; 
     8c0:	d0 93 61 01 	sts	0x0161, r29	; 0x800161 <ST+0x1>
     8c4:	c0 93 60 01 	sts	0x0160, r28	; 0x800160 <ST>
Z:\Projects\PS1\PSX-Controller-DB-15-Adapter\Code\Psx_To_DB-15_REMAP_AF/Psx_To_DB-15_REMAP_AF.ino:301
  STC = 1;  
     8c8:	d0 93 0f 01 	sts	0x010F, r29	; 0x80010f <STC+0x1>
     8cc:	c0 93 0e 01 	sts	0x010E, r28	; 0x80010e <STC>
Z:\Projects\PS1\PSX-Controller-DB-15-Adapter\Code\Psx_To_DB-15_REMAP_AF/Psx_To_DB-15_REMAP_AF.ino:303
}
if (data & psxR2){
     8d0:	96 ff       	sbrs	r25, 6
     8d2:	16 c0       	rjmp	.+44     	; 0x900 <__stack+0x401>
Z:\Projects\PS1\PSX-Controller-DB-15-Adapter\Code\Psx_To_DB-15_REMAP_AF/Psx_To_DB-15_REMAP_AF.ino:304
  R2 = R2O; 
     8d4:	20 91 06 01 	lds	r18, 0x0106	; 0x800106 <R2O>
     8d8:	30 91 07 01 	lds	r19, 0x0107	; 0x800107 <R2O+0x1>
     8dc:	30 93 67 01 	sts	0x0167, r19	; 0x800167 <R2+0x1>
     8e0:	20 93 66 01 	sts	0x0166, r18	; 0x800166 <R2>
Z:\Projects\PS1\PSX-Controller-DB-15-Adapter\Code\Psx_To_DB-15_REMAP_AF/Psx_To_DB-15_REMAP_AF.ino:305
  R2C = 1;  
     8e4:	d0 93 37 01 	sts	0x0137, r29	; 0x800137 <R2C+0x1>
     8e8:	c0 93 36 01 	sts	0x0136, r28	; 0x800136 <R2C>
Z:\Projects\PS1\PSX-Controller-DB-15-Adapter\Code\Psx_To_DB-15_REMAP_AF/Psx_To_DB-15_REMAP_AF.ino:306
  NB = (NB + 1);
     8ec:	20 91 40 01 	lds	r18, 0x0140	; 0x800140 <NB>
     8f0:	30 91 41 01 	lds	r19, 0x0141	; 0x800141 <NB+0x1>
     8f4:	2f 5f       	subi	r18, 0xFF	; 255
     8f6:	3f 4f       	sbci	r19, 0xFF	; 255
     8f8:	30 93 41 01 	sts	0x0141, r19	; 0x800141 <NB+0x1>
     8fc:	20 93 40 01 	sts	0x0140, r18	; 0x800140 <NB>
Z:\Projects\PS1\PSX-Controller-DB-15-Adapter\Code\Psx_To_DB-15_REMAP_AF/Psx_To_DB-15_REMAP_AF.ino:308
}
if (data & psxO) {
     900:	92 ff       	sbrs	r25, 2
     902:	16 c0       	rjmp	.+44     	; 0x930 <__stack+0x431>
Z:\Projects\PS1\PSX-Controller-DB-15-Adapter\Code\Psx_To_DB-15_REMAP_AF/Psx_To_DB-15_REMAP_AF.ino:309
  O = OO; 
     904:	20 91 04 01 	lds	r18, 0x0104	; 0x800104 <OO>
     908:	30 91 05 01 	lds	r19, 0x0105	; 0x800105 <OO+0x1>
     90c:	30 93 6b 01 	sts	0x016B, r19	; 0x80016b <O+0x1>
     910:	20 93 6a 01 	sts	0x016A, r18	; 0x80016a <O>
Z:\Projects\PS1\PSX-Controller-DB-15-Adapter\Code\Psx_To_DB-15_REMAP_AF/Psx_To_DB-15_REMAP_AF.ino:310
  OC = 1; 
     914:	d0 93 33 01 	sts	0x0133, r29	; 0x800133 <OC+0x1>
     918:	c0 93 32 01 	sts	0x0132, r28	; 0x800132 <OC>
Z:\Projects\PS1\PSX-Controller-DB-15-Adapter\Code\Psx_To_DB-15_REMAP_AF/Psx_To_DB-15_REMAP_AF.ino:311
  NB = (NB + 1);
     91c:	20 91 40 01 	lds	r18, 0x0140	; 0x800140 <NB>
     920:	30 91 41 01 	lds	r19, 0x0141	; 0x800141 <NB+0x1>
     924:	2f 5f       	subi	r18, 0xFF	; 255
     926:	3f 4f       	sbci	r19, 0xFF	; 255
     928:	30 93 41 01 	sts	0x0141, r19	; 0x800141 <NB+0x1>
     92c:	20 93 40 01 	sts	0x0140, r18	; 0x800140 <NB>
Z:\Projects\PS1\PSX-Controller-DB-15-Adapter\Code\Psx_To_DB-15_REMAP_AF/Psx_To_DB-15_REMAP_AF.ino:313
}
if (data & psxUp){
     930:	83 ff       	sbrs	r24, 3
     932:	06 c0       	rjmp	.+12     	; 0x940 <__stack+0x441>
Z:\Projects\PS1\PSX-Controller-DB-15-Adapter\Code\Psx_To_DB-15_REMAP_AF/Psx_To_DB-15_REMAP_AF.ino:314
  outputd |= 2;   
     934:	22 e0       	ldi	r18, 0x02	; 2
     936:	30 e0       	ldi	r19, 0x00	; 0
     938:	30 93 73 01 	sts	0x0173, r19	; 0x800173 <outputd+0x1>
     93c:	20 93 72 01 	sts	0x0172, r18	; 0x800172 <outputd>
Z:\Projects\PS1\PSX-Controller-DB-15-Adapter\Code\Psx_To_DB-15_REMAP_AF/Psx_To_DB-15_REMAP_AF.ino:316
}                 
if (data & psxSlct){
     940:	87 ff       	sbrs	r24, 7
     942:	08 c0       	rjmp	.+16     	; 0x954 <__stack+0x455>
Z:\Projects\PS1\PSX-Controller-DB-15-Adapter\Code\Psx_To_DB-15_REMAP_AF/Psx_To_DB-15_REMAP_AF.ino:317
  SL = 1; 
     944:	d0 93 5f 01 	sts	0x015F, r29	; 0x80015f <SL+0x1>
     948:	c0 93 5e 01 	sts	0x015E, r28	; 0x80015e <SL>
Z:\Projects\PS1\PSX-Controller-DB-15-Adapter\Code\Psx_To_DB-15_REMAP_AF/Psx_To_DB-15_REMAP_AF.ino:318
  SLC = 1;  
     94c:	d0 93 0d 01 	sts	0x010D, r29	; 0x80010d <__data_end+0x1>
     950:	c0 93 0c 01 	sts	0x010C, r28	; 0x80010c <__data_end>
Z:\Projects\PS1\PSX-Controller-DB-15-Adapter\Code\Psx_To_DB-15_REMAP_AF/Psx_To_DB-15_REMAP_AF.ino:320
}
if (data & psxDown){
     954:	81 ff       	sbrs	r24, 1
     956:	09 c0       	rjmp	.+18     	; 0x96a <__stack+0x46b>
Z:\Projects\PS1\PSX-Controller-DB-15-Adapter\Code\Psx_To_DB-15_REMAP_AF/Psx_To_DB-15_REMAP_AF.ino:321
  outputd |= 16;    
     958:	20 91 72 01 	lds	r18, 0x0172	; 0x800172 <outputd>
     95c:	30 91 73 01 	lds	r19, 0x0173	; 0x800173 <outputd+0x1>
     960:	20 61       	ori	r18, 0x10	; 16
     962:	30 93 73 01 	sts	0x0173, r19	; 0x800173 <outputd+0x1>
     966:	20 93 72 01 	sts	0x0172, r18	; 0x800172 <outputd>
Z:\Projects\PS1\PSX-Controller-DB-15-Adapter\Code\Psx_To_DB-15_REMAP_AF/Psx_To_DB-15_REMAP_AF.ino:323
}       
if (data & psxLeft){   
     96a:	80 ff       	sbrs	r24, 0
     96c:	09 c0       	rjmp	.+18     	; 0x980 <__stack+0x481>
Z:\Projects\PS1\PSX-Controller-DB-15-Adapter\Code\Psx_To_DB-15_REMAP_AF/Psx_To_DB-15_REMAP_AF.ino:324
  outputd |= 32;
     96e:	20 91 72 01 	lds	r18, 0x0172	; 0x800172 <outputd>
     972:	30 91 73 01 	lds	r19, 0x0173	; 0x800173 <outputd+0x1>
     976:	20 62       	ori	r18, 0x20	; 32
     978:	30 93 73 01 	sts	0x0173, r19	; 0x800173 <outputd+0x1>
     97c:	20 93 72 01 	sts	0x0172, r18	; 0x800172 <outputd>
Z:\Projects\PS1\PSX-Controller-DB-15-Adapter\Code\Psx_To_DB-15_REMAP_AF/Psx_To_DB-15_REMAP_AF.ino:326
}
if (data & psxRight){
     980:	82 ff       	sbrs	r24, 2
     982:	09 c0       	rjmp	.+18     	; 0x996 <__stack+0x497>
Z:\Projects\PS1\PSX-Controller-DB-15-Adapter\Code\Psx_To_DB-15_REMAP_AF/Psx_To_DB-15_REMAP_AF.ino:327
  outputd |= 64;
     984:	20 91 72 01 	lds	r18, 0x0172	; 0x800172 <outputd>
     988:	30 91 73 01 	lds	r19, 0x0173	; 0x800173 <outputd+0x1>
     98c:	20 64       	ori	r18, 0x40	; 64
     98e:	30 93 73 01 	sts	0x0173, r19	; 0x800173 <outputd+0x1>
     992:	20 93 72 01 	sts	0x0172, r18	; 0x800172 <outputd>
Z:\Projects\PS1\PSX-Controller-DB-15-Adapter\Code\Psx_To_DB-15_REMAP_AF/Psx_To_DB-15_REMAP_AF.ino:329
}
if (data & psxSqu) {
     996:	90 ff       	sbrs	r25, 0
     998:	15 c0       	rjmp	.+42     	; 0x9c4 <__stack+0x4c5>
Z:\Projects\PS1\PSX-Controller-DB-15-Adapter\Code\Psx_To_DB-15_REMAP_AF/Psx_To_DB-15_REMAP_AF.ino:330
  SQ = SQO; 
     99a:	80 91 08 01 	lds	r24, 0x0108	; 0x800108 <SQO>
     99e:	90 91 09 01 	lds	r25, 0x0109	; 0x800109 <SQO+0x1>
     9a2:	90 93 71 01 	sts	0x0171, r25	; 0x800171 <SQ+0x1>
     9a6:	80 93 70 01 	sts	0x0170, r24	; 0x800170 <SQ>
Z:\Projects\PS1\PSX-Controller-DB-15-Adapter\Code\Psx_To_DB-15_REMAP_AF/Psx_To_DB-15_REMAP_AF.ino:331
  SQC = 1; 
     9aa:	d0 93 3b 01 	sts	0x013B, r29	; 0x80013b <SQC+0x1>
     9ae:	c0 93 3a 01 	sts	0x013A, r28	; 0x80013a <SQC>
Z:\Projects\PS1\PSX-Controller-DB-15-Adapter\Code\Psx_To_DB-15_REMAP_AF/Psx_To_DB-15_REMAP_AF.ino:332
  NB = (NB + 1);   
     9b2:	80 91 40 01 	lds	r24, 0x0140	; 0x800140 <NB>
     9b6:	90 91 41 01 	lds	r25, 0x0141	; 0x800141 <NB+0x1>
     9ba:	01 96       	adiw	r24, 0x01	; 1
     9bc:	90 93 41 01 	sts	0x0141, r25	; 0x800141 <NB+0x1>
     9c0:	80 93 40 01 	sts	0x0140, r24	; 0x800140 <NB>
buttoncombos():
Z:\Projects\PS1\PSX-Controller-DB-15-Adapter\Code\Psx_To_DB-15_REMAP_AF/Psx_To_DB-15_REMAP_AF.ino:358
if (TR == 1 || SQ == 1 || R1 == 1 || O == 1 || X == 1 || R2 == 1 || L1 == 1 || L2 == 1) 
  outputd |= 128;     
}

void buttoncombos(){
if (L1C == 1 && (R1C == 1 && (SL == 1 && (L1P == 1 && (R1P == 1 && (SLP == 1)))))){        // Checks if Start and 3 buttons are pressed. 
     9c4:	80 91 26 01 	lds	r24, 0x0126	; 0x800126 <L1C>
     9c8:	90 91 27 01 	lds	r25, 0x0127	; 0x800127 <L1C+0x1>
     9cc:	01 97       	sbiw	r24, 0x01	; 1
     9ce:	09 f0       	breq	.+2      	; 0x9d2 <__stack+0x4d3>
     9d0:	91 c1       	rjmp	.+802    	; 0xcf4 <__stack+0x7f5>
     9d2:	80 91 2a 01 	lds	r24, 0x012A	; 0x80012a <R1C>
     9d6:	90 91 2b 01 	lds	r25, 0x012B	; 0x80012b <R1C+0x1>
     9da:	01 97       	sbiw	r24, 0x01	; 1
     9dc:	09 f0       	breq	.+2      	; 0x9e0 <__stack+0x4e1>
     9de:	8a c1       	rjmp	.+788    	; 0xcf4 <__stack+0x7f5>
     9e0:	80 91 5e 01 	lds	r24, 0x015E	; 0x80015e <SL>
     9e4:	90 91 5f 01 	lds	r25, 0x015F	; 0x80015f <SL+0x1>
     9e8:	01 97       	sbiw	r24, 0x01	; 1
     9ea:	09 f0       	breq	.+2      	; 0x9ee <__stack+0x4ef>
     9ec:	83 c1       	rjmp	.+774    	; 0xcf4 <__stack+0x7f5>
     9ee:	8a 94       	dec	r8
     9f0:	89 28       	or	r8, r9
     9f2:	09 f0       	breq	.+2      	; 0x9f6 <__stack+0x4f7>
     9f4:	7f c1       	rjmp	.+766    	; 0xcf4 <__stack+0x7f5>
     9f6:	ca 94       	dec	r12
     9f8:	cd 28       	or	r12, r13
     9fa:	09 f0       	breq	.+2      	; 0x9fe <__stack+0x4ff>
     9fc:	7b c1       	rjmp	.+758    	; 0xcf4 <__stack+0x7f5>
     9fe:	ea 94       	dec	r14
     a00:	ef 28       	or	r14, r15
     a02:	09 f0       	breq	.+2      	; 0xa06 <__stack+0x507>
     a04:	77 c1       	rjmp	.+750    	; 0xcf4 <__stack+0x7f5>
Z:\Projects\PS1\PSX-Controller-DB-15-Adapter\Code\Psx_To_DB-15_REMAP_AF/Psx_To_DB-15_REMAP_AF.ino:359
  HAScount = (HAScount + 1);
     a06:	80 91 16 01 	lds	r24, 0x0116	; 0x800116 <HAScount>
     a0a:	90 91 17 01 	lds	r25, 0x0117	; 0x800117 <HAScount+0x1>
     a0e:	01 96       	adiw	r24, 0x01	; 1
     a10:	90 93 17 01 	sts	0x0117, r25	; 0x800117 <HAScount+0x1>
     a14:	80 93 16 01 	sts	0x0116, r24	; 0x800116 <HAScount>
Z:\Projects\PS1\PSX-Controller-DB-15-Adapter\Code\Psx_To_DB-15_REMAP_AF/Psx_To_DB-15_REMAP_AF.ino:364
}else{ 
  HAScount = 0;
}

if (HAScount >= combodelay2){{{
     a18:	80 91 16 01 	lds	r24, 0x0116	; 0x800116 <HAScount>
     a1c:	90 91 17 01 	lds	r25, 0x0117	; 0x800117 <HAScount+0x1>
     a20:	8c 3d       	cpi	r24, 0xDC	; 220
     a22:	91 05       	cpc	r25, r1
     a24:	0c f4       	brge	.+2      	; 0xa28 <__stack+0x529>
     a26:	ac c0       	rjmp	.+344    	; 0xb80 <__stack+0x681>
Z:\Projects\PS1\PSX-Controller-DB-15-Adapter\Code\Psx_To_DB-15_REMAP_AF/Psx_To_DB-15_REMAP_AF.ino:365
HAScount = 0;
     a28:	10 92 17 01 	sts	0x0117, r1	; 0x800117 <HAScount+0x1>
     a2c:	10 92 16 01 	sts	0x0116, r1	; 0x800116 <HAScount>
Z:\Projects\PS1\PSX-Controller-DB-15-Adapter\Code\Psx_To_DB-15_REMAP_AF/Psx_To_DB-15_REMAP_AF.ino:366
HASmode = (HASmode + 1); 
     a30:	80 91 14 01 	lds	r24, 0x0114	; 0x800114 <HASmode>
     a34:	90 91 15 01 	lds	r25, 0x0115	; 0x800115 <HASmode+0x1>
     a38:	01 96       	adiw	r24, 0x01	; 1
     a3a:	90 93 15 01 	sts	0x0115, r25	; 0x800115 <HASmode+0x1>
     a3e:	80 93 14 01 	sts	0x0114, r24	; 0x800114 <HASmode>
Z:\Projects\PS1\PSX-Controller-DB-15-Adapter\Code\Psx_To_DB-15_REMAP_AF/Psx_To_DB-15_REMAP_AF.ino:368
 }
if (HASmode > 1){
     a42:	02 97       	sbiw	r24, 0x02	; 2
     a44:	0c f4       	brge	.+2      	; 0xa48 <__stack+0x549>
     a46:	5b c1       	rjmp	.+694    	; 0xcfe <__stack+0x7ff>
Z:\Projects\PS1\PSX-Controller-DB-15-Adapter\Code\Psx_To_DB-15_REMAP_AF/Psx_To_DB-15_REMAP_AF.ino:369
  HASmode = 0;
     a48:	10 92 15 01 	sts	0x0115, r1	; 0x800115 <HASmode+0x1>
     a4c:	10 92 14 01 	sts	0x0114, r1	; 0x800114 <HASmode>
     a50:	8c e0       	ldi	r24, 0x0C	; 12
     a52:	e8 2e       	mov	r14, r24
     a54:	f1 2c       	mov	r15, r1
Z:\Projects\PS1\PSX-Controller-DB-15-Adapter\Code\Psx_To_DB-15_REMAP_AF/Psx_To_DB-15_REMAP_AF.ino:371
    for (int i = 0; i <= 11; i++) {
    DDRD = 0;
     a56:	1a b8       	out	0x0a, r1	; 10
Z:\Projects\PS1\PSX-Controller-DB-15-Adapter\Code\Psx_To_DB-15_REMAP_AF/Psx_To_DB-15_REMAP_AF.ino:372
    delay(16);
     a58:	60 e1       	ldi	r22, 0x10	; 16
     a5a:	70 e0       	ldi	r23, 0x00	; 0
     a5c:	80 e0       	ldi	r24, 0x00	; 0
     a5e:	90 e0       	ldi	r25, 0x00	; 0
     a60:	62 dc       	rcall	.-1852   	; 0x326 <delay>
Z:\Projects\PS1\PSX-Controller-DB-15-Adapter\Code\Psx_To_DB-15_REMAP_AF/Psx_To_DB-15_REMAP_AF.ino:373
    DDRD |= 1;
     a62:	50 9a       	sbi	0x0a, 0	; 10
Z:\Projects\PS1\PSX-Controller-DB-15-Adapter\Code\Psx_To_DB-15_REMAP_AF/Psx_To_DB-15_REMAP_AF.ino:374
    delay(16);
     a64:	60 e1       	ldi	r22, 0x10	; 16
     a66:	70 e0       	ldi	r23, 0x00	; 0
     a68:	80 e0       	ldi	r24, 0x00	; 0
     a6a:	90 e0       	ldi	r25, 0x00	; 0
     a6c:	5c dc       	rcall	.-1864   	; 0x326 <delay>
     a6e:	11 e0       	ldi	r17, 0x01	; 1
     a70:	e1 1a       	sub	r14, r17
     a72:	f1 08       	sbc	r15, r1
Z:\Projects\PS1\PSX-Controller-DB-15-Adapter\Code\Psx_To_DB-15_REMAP_AF/Psx_To_DB-15_REMAP_AF.ino:370
HAScount = 0;
HASmode = (HASmode + 1); 
 }
if (HASmode > 1){
  HASmode = 0;
    for (int i = 0; i <= 11; i++) {
     a74:	81 f7       	brne	.-32     	; 0xa56 <__stack+0x557>
Z:\Projects\PS1\PSX-Controller-DB-15-Adapter\Code\Psx_To_DB-15_REMAP_AF/Psx_To_DB-15_REMAP_AF.ino:376
    DDRD = 0;
    delay(16);
    DDRD |= 1;
    delay(16);
  }
TRO = EEPROM.read(0);
     a76:	90 e0       	ldi	r25, 0x00	; 0
     a78:	80 e0       	ldi	r24, 0x00	; 0
     a7a:	86 dc       	rcall	.-1780   	; 0x388 <EEPROMClass::read(int) [clone .isra.0]>
     a7c:	90 e0       	ldi	r25, 0x00	; 0
     a7e:	90 93 0b 01 	sts	0x010B, r25	; 0x80010b <TRO+0x1>
     a82:	80 93 0a 01 	sts	0x010A, r24	; 0x80010a <TRO>
Z:\Projects\PS1\PSX-Controller-DB-15-Adapter\Code\Psx_To_DB-15_REMAP_AF/Psx_To_DB-15_REMAP_AF.ino:377
SQO = EEPROM.read(1);
     a86:	81 e0       	ldi	r24, 0x01	; 1
     a88:	90 e0       	ldi	r25, 0x00	; 0
     a8a:	7e dc       	rcall	.-1796   	; 0x388 <EEPROMClass::read(int) [clone .isra.0]>
     a8c:	90 e0       	ldi	r25, 0x00	; 0
     a8e:	90 93 09 01 	sts	0x0109, r25	; 0x800109 <SQO+0x1>
     a92:	80 93 08 01 	sts	0x0108, r24	; 0x800108 <SQO>
Z:\Projects\PS1\PSX-Controller-DB-15-Adapter\Code\Psx_To_DB-15_REMAP_AF/Psx_To_DB-15_REMAP_AF.ino:378
R2O = EEPROM.read(2);
     a96:	82 e0       	ldi	r24, 0x02	; 2
     a98:	90 e0       	ldi	r25, 0x00	; 0
     a9a:	76 dc       	rcall	.-1812   	; 0x388 <EEPROMClass::read(int) [clone .isra.0]>
     a9c:	90 e0       	ldi	r25, 0x00	; 0
     a9e:	90 93 07 01 	sts	0x0107, r25	; 0x800107 <R2O+0x1>
     aa2:	80 93 06 01 	sts	0x0106, r24	; 0x800106 <R2O>
Z:\Projects\PS1\PSX-Controller-DB-15-Adapter\Code\Psx_To_DB-15_REMAP_AF/Psx_To_DB-15_REMAP_AF.ino:379
OO = EEPROM.read(3);
     aa6:	83 e0       	ldi	r24, 0x03	; 3
     aa8:	90 e0       	ldi	r25, 0x00	; 0
     aaa:	6e dc       	rcall	.-1828   	; 0x388 <EEPROMClass::read(int) [clone .isra.0]>
     aac:	90 e0       	ldi	r25, 0x00	; 0
     aae:	90 93 05 01 	sts	0x0105, r25	; 0x800105 <OO+0x1>
     ab2:	80 93 04 01 	sts	0x0104, r24	; 0x800104 <OO>
Z:\Projects\PS1\PSX-Controller-DB-15-Adapter\Code\Psx_To_DB-15_REMAP_AF/Psx_To_DB-15_REMAP_AF.ino:380
XO = EEPROM.read(4);
     ab6:	84 e0       	ldi	r24, 0x04	; 4
     ab8:	90 e0       	ldi	r25, 0x00	; 0
     aba:	66 dc       	rcall	.-1844   	; 0x388 <EEPROMClass::read(int) [clone .isra.0]>
     abc:	90 e0       	ldi	r25, 0x00	; 0
     abe:	90 93 03 01 	sts	0x0103, r25	; 0x800103 <XO+0x1>
     ac2:	80 93 02 01 	sts	0x0102, r24	; 0x800102 <XO>
Z:\Projects\PS1\PSX-Controller-DB-15-Adapter\Code\Psx_To_DB-15_REMAP_AF/Psx_To_DB-15_REMAP_AF.ino:381
R1O = EEPROM.read(5);
     ac6:	85 e0       	ldi	r24, 0x05	; 5
     ac8:	90 e0       	ldi	r25, 0x00	; 0
     aca:	5e dc       	rcall	.-1860   	; 0x388 <EEPROMClass::read(int) [clone .isra.0]>
     acc:	90 e0       	ldi	r25, 0x00	; 0
     ace:	90 93 01 01 	sts	0x0101, r25	; 0x800101 <__data_start+0x1>
     ad2:	80 93 00 01 	sts	0x0100, r24	; 0x800100 <__data_start>
Z:\Projects\PS1\PSX-Controller-DB-15-Adapter\Code\Psx_To_DB-15_REMAP_AF/Psx_To_DB-15_REMAP_AF.ino:382
L1O = EEPROM.read(13);
     ad6:	8d e0       	ldi	r24, 0x0D	; 13
     ad8:	90 e0       	ldi	r25, 0x00	; 0
     ada:	56 dc       	rcall	.-1876   	; 0x388 <EEPROMClass::read(int) [clone .isra.0]>
     adc:	90 e0       	ldi	r25, 0x00	; 0
     ade:	90 93 1d 01 	sts	0x011D, r25	; 0x80011d <L1O+0x1>
     ae2:	80 93 1c 01 	sts	0x011C, r24	; 0x80011c <L1O>
Z:\Projects\PS1\PSX-Controller-DB-15-Adapter\Code\Psx_To_DB-15_REMAP_AF/Psx_To_DB-15_REMAP_AF.ino:383
L2O = EEPROM.read(14);
     ae6:	8e e0       	ldi	r24, 0x0E	; 14
     ae8:	90 e0       	ldi	r25, 0x00	; 0
     aea:	4e dc       	rcall	.-1892   	; 0x388 <EEPROMClass::read(int) [clone .isra.0]>
     aec:	90 e0       	ldi	r25, 0x00	; 0
     aee:	90 93 1b 01 	sts	0x011B, r25	; 0x80011b <L2O+0x1>
     af2:	80 93 1a 01 	sts	0x011A, r24	; 0x80011a <L2O>
Z:\Projects\PS1\PSX-Controller-DB-15-Adapter\Code\Psx_To_DB-15_REMAP_AF/Psx_To_DB-15_REMAP_AF.ino:384
TRA = EEPROM.read(7);
     af6:	87 e0       	ldi	r24, 0x07	; 7
     af8:	90 e0       	ldi	r25, 0x00	; 0
     afa:	46 dc       	rcall	.-1908   	; 0x388 <EEPROMClass::read(int) [clone .isra.0]>
     afc:	90 e0       	ldi	r25, 0x00	; 0
     afe:	90 93 51 01 	sts	0x0151, r25	; 0x800151 <TRA+0x1>
     b02:	80 93 50 01 	sts	0x0150, r24	; 0x800150 <TRA>
Z:\Projects\PS1\PSX-Controller-DB-15-Adapter\Code\Psx_To_DB-15_REMAP_AF/Psx_To_DB-15_REMAP_AF.ino:385
SQA = EEPROM.read(8);
     b06:	88 e0       	ldi	r24, 0x08	; 8
     b08:	90 e0       	ldi	r25, 0x00	; 0
     b0a:	3e dc       	rcall	.-1924   	; 0x388 <EEPROMClass::read(int) [clone .isra.0]>
     b0c:	90 e0       	ldi	r25, 0x00	; 0
     b0e:	90 93 4f 01 	sts	0x014F, r25	; 0x80014f <SQA+0x1>
     b12:	80 93 4e 01 	sts	0x014E, r24	; 0x80014e <SQA>
Z:\Projects\PS1\PSX-Controller-DB-15-Adapter\Code\Psx_To_DB-15_REMAP_AF/Psx_To_DB-15_REMAP_AF.ino:386
R2A = EEPROM.read(9);
     b16:	89 e0       	ldi	r24, 0x09	; 9
     b18:	90 e0       	ldi	r25, 0x00	; 0
     b1a:	36 dc       	rcall	.-1940   	; 0x388 <EEPROMClass::read(int) [clone .isra.0]>
     b1c:	90 e0       	ldi	r25, 0x00	; 0
     b1e:	90 93 4d 01 	sts	0x014D, r25	; 0x80014d <R2A+0x1>
     b22:	80 93 4c 01 	sts	0x014C, r24	; 0x80014c <R2A>
Z:\Projects\PS1\PSX-Controller-DB-15-Adapter\Code\Psx_To_DB-15_REMAP_AF/Psx_To_DB-15_REMAP_AF.ino:387
OA = EEPROM.read(10);
     b26:	8a e0       	ldi	r24, 0x0A	; 10
     b28:	90 e0       	ldi	r25, 0x00	; 0
     b2a:	2e dc       	rcall	.-1956   	; 0x388 <EEPROMClass::read(int) [clone .isra.0]>
     b2c:	90 e0       	ldi	r25, 0x00	; 0
     b2e:	90 93 4b 01 	sts	0x014B, r25	; 0x80014b <OA+0x1>
     b32:	80 93 4a 01 	sts	0x014A, r24	; 0x80014a <OA>
Z:\Projects\PS1\PSX-Controller-DB-15-Adapter\Code\Psx_To_DB-15_REMAP_AF/Psx_To_DB-15_REMAP_AF.ino:388
XA = EEPROM.read(11);
     b36:	8b e0       	ldi	r24, 0x0B	; 11
     b38:	90 e0       	ldi	r25, 0x00	; 0
     b3a:	26 dc       	rcall	.-1972   	; 0x388 <EEPROMClass::read(int) [clone .isra.0]>
     b3c:	90 e0       	ldi	r25, 0x00	; 0
     b3e:	90 93 49 01 	sts	0x0149, r25	; 0x800149 <XA+0x1>
     b42:	80 93 48 01 	sts	0x0148, r24	; 0x800148 <XA>
Z:\Projects\PS1\PSX-Controller-DB-15-Adapter\Code\Psx_To_DB-15_REMAP_AF/Psx_To_DB-15_REMAP_AF.ino:389
R1A = EEPROM.read(12);
     b46:	8c e0       	ldi	r24, 0x0C	; 12
     b48:	90 e0       	ldi	r25, 0x00	; 0
     b4a:	1e dc       	rcall	.-1988   	; 0x388 <EEPROMClass::read(int) [clone .isra.0]>
     b4c:	90 e0       	ldi	r25, 0x00	; 0
     b4e:	90 93 47 01 	sts	0x0147, r25	; 0x800147 <R1A+0x1>
     b52:	80 93 46 01 	sts	0x0146, r24	; 0x800146 <R1A>
Z:\Projects\PS1\PSX-Controller-DB-15-Adapter\Code\Psx_To_DB-15_REMAP_AF/Psx_To_DB-15_REMAP_AF.ino:390
L1A = EEPROM.read(15);
     b56:	8f e0       	ldi	r24, 0x0F	; 15
     b58:	90 e0       	ldi	r25, 0x00	; 0
     b5a:	16 dc       	rcall	.-2004   	; 0x388 <EEPROMClass::read(int) [clone .isra.0]>
     b5c:	90 e0       	ldi	r25, 0x00	; 0
     b5e:	90 93 45 01 	sts	0x0145, r25	; 0x800145 <L1A+0x1>
     b62:	80 93 44 01 	sts	0x0144, r24	; 0x800144 <L1A>
Z:\Projects\PS1\PSX-Controller-DB-15-Adapter\Code\Psx_To_DB-15_REMAP_AF/Psx_To_DB-15_REMAP_AF.ino:391
L2A = EEPROM.read(16);
     b66:	80 e1       	ldi	r24, 0x10	; 16
     b68:	90 e0       	ldi	r25, 0x00	; 0
     b6a:	0e dc       	rcall	.-2020   	; 0x388 <EEPROMClass::read(int) [clone .isra.0]>
     b6c:	90 e0       	ldi	r25, 0x00	; 0
     b6e:	90 93 43 01 	sts	0x0143, r25	; 0x800143 <L2A+0x1>
     b72:	80 93 42 01 	sts	0x0142, r24	; 0x800142 <L2A>
Z:\Projects\PS1\PSX-Controller-DB-15-Adapter\Code\Psx_To_DB-15_REMAP_AF/Psx_To_DB-15_REMAP_AF.ino:416
L1A = 0;
L2A = 0;
  }
 
}
EEPROM.write(17,HASmode);
     b76:	60 91 14 01 	lds	r22, 0x0114	; 0x800114 <HASmode>
     b7a:	81 e1       	ldi	r24, 0x11	; 17
     b7c:	90 e0       	ldi	r25, 0x00	; 0
     b7e:	03 dc       	rcall	.-2042   	; 0x386 <EEPROMClass::write(int, unsigned char) [clone .isra.1]>
Z:\Projects\PS1\PSX-Controller-DB-15-Adapter\Code\Psx_To_DB-15_REMAP_AF/Psx_To_DB-15_REMAP_AF.ino:419
}
  
if (ST == 1 && (NB == 2 && (STP == 1 && (HASmode == 0)))){        // Checks if Start and 2 buttons are pressed. 
     b80:	80 91 60 01 	lds	r24, 0x0160	; 0x800160 <ST>
     b84:	90 91 61 01 	lds	r25, 0x0161	; 0x800161 <ST+0x1>
     b88:	81 30       	cpi	r24, 0x01	; 1
     b8a:	91 05       	cpc	r25, r1
     b8c:	09 f0       	breq	.+2      	; 0xb90 <__stack+0x691>
     b8e:	02 c1       	rjmp	.+516    	; 0xd94 <__stack+0x895>
     b90:	20 91 40 01 	lds	r18, 0x0140	; 0x800140 <NB>
     b94:	30 91 41 01 	lds	r19, 0x0141	; 0x800141 <NB+0x1>
     b98:	22 30       	cpi	r18, 0x02	; 2
     b9a:	31 05       	cpc	r19, r1
     b9c:	09 f0       	breq	.+2      	; 0xba0 <__stack+0x6a1>
     b9e:	fa c0       	rjmp	.+500    	; 0xd94 <__stack+0x895>
     ba0:	20 91 1e 01 	lds	r18, 0x011E	; 0x80011e <STP>
     ba4:	30 91 1f 01 	lds	r19, 0x011F	; 0x80011f <STP+0x1>
     ba8:	21 30       	cpi	r18, 0x01	; 1
     baa:	31 05       	cpc	r19, r1
     bac:	09 f0       	breq	.+2      	; 0xbb0 <__stack+0x6b1>
     bae:	f2 c0       	rjmp	.+484    	; 0xd94 <__stack+0x895>
     bb0:	20 91 14 01 	lds	r18, 0x0114	; 0x800114 <HASmode>
     bb4:	30 91 15 01 	lds	r19, 0x0115	; 0x800115 <HASmode+0x1>
     bb8:	23 2b       	or	r18, r19
     bba:	09 f0       	breq	.+2      	; 0xbbe <__stack+0x6bf>
     bbc:	eb c0       	rjmp	.+470    	; 0xd94 <__stack+0x895>
Z:\Projects\PS1\PSX-Controller-DB-15-Adapter\Code\Psx_To_DB-15_REMAP_AF/Psx_To_DB-15_REMAP_AF.ino:420
  remapcount = (remapcount + 1);
     bbe:	20 91 12 01 	lds	r18, 0x0112	; 0x800112 <remapcount>
     bc2:	30 91 13 01 	lds	r19, 0x0113	; 0x800113 <remapcount+0x1>
     bc6:	2f 5f       	subi	r18, 0xFF	; 255
     bc8:	3f 4f       	sbci	r19, 0xFF	; 255
     bca:	30 93 13 01 	sts	0x0113, r19	; 0x800113 <remapcount+0x1>
     bce:	20 93 12 01 	sts	0x0112, r18	; 0x800112 <remapcount>
Z:\Projects\PS1\PSX-Controller-DB-15-Adapter\Code\Psx_To_DB-15_REMAP_AF/Psx_To_DB-15_REMAP_AF.ino:425
}else{ 
  remapcount = 0;
}

if (remapcount >= combodelay){
     bd2:	20 91 12 01 	lds	r18, 0x0112	; 0x800112 <remapcount>
     bd6:	30 91 13 01 	lds	r19, 0x0113	; 0x800113 <remapcount+0x1>
     bda:	20 3a       	cpi	r18, 0xA0	; 160
     bdc:	31 05       	cpc	r19, r1
     bde:	44 f0       	brlt	.+16     	; 0xbf0 <__stack+0x6f1>
Z:\Projects\PS1\PSX-Controller-DB-15-Adapter\Code\Psx_To_DB-15_REMAP_AF/Psx_To_DB-15_REMAP_AF.ino:426
remapcount = 0;
     be0:	10 92 13 01 	sts	0x0113, r1	; 0x800113 <remapcount+0x1>
     be4:	10 92 12 01 	sts	0x0112, r1	; 0x800112 <remapcount>
Z:\Projects\PS1\PSX-Controller-DB-15-Adapter\Code\Psx_To_DB-15_REMAP_AF/Psx_To_DB-15_REMAP_AF.ino:427
buttonmap = 1;                // Sets buttonmap mode to 1 
     be8:	d0 93 79 01 	sts	0x0179, r29	; 0x800179 <buttonmap+0x1>
     bec:	c0 93 78 01 	sts	0x0178, r28	; 0x800178 <buttonmap>
Z:\Projects\PS1\PSX-Controller-DB-15-Adapter\Code\Psx_To_DB-15_REMAP_AF/Psx_To_DB-15_REMAP_AF.ino:429
 }
 if (ST == 1 && (NB == 1 && (STP == 1 && (HASmode == 0)))){        // Checks if Start and 2 buttons are pressed. 
     bf0:	81 30       	cpi	r24, 0x01	; 1
     bf2:	91 05       	cpc	r25, r1
     bf4:	09 f0       	breq	.+2      	; 0xbf8 <__stack+0x6f9>
     bf6:	d3 c0       	rjmp	.+422    	; 0xd9e <__stack+0x89f>
     bf8:	20 91 40 01 	lds	r18, 0x0140	; 0x800140 <NB>
     bfc:	30 91 41 01 	lds	r19, 0x0141	; 0x800141 <NB+0x1>
     c00:	21 30       	cpi	r18, 0x01	; 1
     c02:	31 05       	cpc	r19, r1
     c04:	09 f0       	breq	.+2      	; 0xc08 <__stack+0x709>
     c06:	cb c0       	rjmp	.+406    	; 0xd9e <__stack+0x89f>
     c08:	20 91 1e 01 	lds	r18, 0x011E	; 0x80011e <STP>
     c0c:	30 91 1f 01 	lds	r19, 0x011F	; 0x80011f <STP+0x1>
     c10:	21 30       	cpi	r18, 0x01	; 1
     c12:	31 05       	cpc	r19, r1
     c14:	09 f0       	breq	.+2      	; 0xc18 <__stack+0x719>
     c16:	c3 c0       	rjmp	.+390    	; 0xd9e <__stack+0x89f>
     c18:	20 91 14 01 	lds	r18, 0x0114	; 0x800114 <HASmode>
     c1c:	30 91 15 01 	lds	r19, 0x0115	; 0x800115 <HASmode+0x1>
     c20:	23 2b       	or	r18, r19
     c22:	09 f0       	breq	.+2      	; 0xc26 <__stack+0x727>
     c24:	bc c0       	rjmp	.+376    	; 0xd9e <__stack+0x89f>
Z:\Projects\PS1\PSX-Controller-DB-15-Adapter\Code\Psx_To_DB-15_REMAP_AF/Psx_To_DB-15_REMAP_AF.ino:430
  autofirecount = (autofirecount + 1);
     c26:	20 91 10 01 	lds	r18, 0x0110	; 0x800110 <autofirecount>
     c2a:	30 91 11 01 	lds	r19, 0x0111	; 0x800111 <autofirecount+0x1>
     c2e:	2f 5f       	subi	r18, 0xFF	; 255
     c30:	3f 4f       	sbci	r19, 0xFF	; 255
     c32:	30 93 11 01 	sts	0x0111, r19	; 0x800111 <autofirecount+0x1>
     c36:	20 93 10 01 	sts	0x0110, r18	; 0x800110 <autofirecount>
Z:\Projects\PS1\PSX-Controller-DB-15-Adapter\Code\Psx_To_DB-15_REMAP_AF/Psx_To_DB-15_REMAP_AF.ino:435
}else{ 
  autofirecount = 0;
}

if (autofirecount >= combodelay){
     c3a:	20 91 10 01 	lds	r18, 0x0110	; 0x800110 <autofirecount>
     c3e:	30 91 11 01 	lds	r19, 0x0111	; 0x800111 <autofirecount+0x1>
     c42:	20 3a       	cpi	r18, 0xA0	; 160
     c44:	31 05       	cpc	r19, r1
     c46:	44 f0       	brlt	.+16     	; 0xc58 <__stack+0x759>
Z:\Projects\PS1\PSX-Controller-DB-15-Adapter\Code\Psx_To_DB-15_REMAP_AF/Psx_To_DB-15_REMAP_AF.ino:436
autofirecount = 0;
     c48:	10 92 11 01 	sts	0x0111, r1	; 0x800111 <autofirecount+0x1>
     c4c:	10 92 10 01 	sts	0x0110, r1	; 0x800110 <autofirecount>
Z:\Projects\PS1\PSX-Controller-DB-15-Adapter\Code\Psx_To_DB-15_REMAP_AF/Psx_To_DB-15_REMAP_AF.ino:437
autofire = 1;                // Sets autofire mode to 1 
     c50:	d0 93 77 01 	sts	0x0177, r29	; 0x800177 <autofire+0x1>
     c54:	c0 93 76 01 	sts	0x0176, r28	; 0x800176 <autofire>
loop():
Z:\Projects\PS1\PSX-Controller-DB-15-Adapter\Code\Psx_To_DB-15_REMAP_AF/Psx_To_DB-15_REMAP_AF.ino:160
  
void loop()
{
  scaninputs(); 
  buttoncombos();
if (buttonmap == 1){             // Stores output data for PORTB and PORTD based on sixbutton map.
     c58:	20 91 78 01 	lds	r18, 0x0178	; 0x800178 <buttonmap>
     c5c:	30 91 79 01 	lds	r19, 0x0179	; 0x800179 <buttonmap+0x1>
     c60:	21 30       	cpi	r18, 0x01	; 1
     c62:	31 05       	cpc	r19, r1
     c64:	09 f0       	breq	.+2      	; 0xc68 <__stack+0x769>
     c66:	fe c1       	rjmp	.+1020   	; 0x1064 <__stack+0xb65>
Z:\Projects\PS1\PSX-Controller-DB-15-Adapter\Code\Psx_To_DB-15_REMAP_AF/Psx_To_DB-15_REMAP_AF.ino:161
  autofire = 0;
     c68:	10 92 77 01 	sts	0x0177, r1	; 0x800177 <autofire+0x1>
     c6c:	10 92 76 01 	sts	0x0176, r1	; 0x800176 <autofire>
     c70:	20 91 40 01 	lds	r18, 0x0140	; 0x800140 <NB>
     c74:	30 91 41 01 	lds	r19, 0x0141	; 0x800141 <NB+0x1>
buttonmapping():
Z:\Projects\PS1\PSX-Controller-DB-15-Adapter\Code\Psx_To_DB-15_REMAP_AF/Psx_To_DB-15_REMAP_AF.ino:442
autofire = 1;                // Sets autofire mode to 1 
 }
}

void buttonmapping(){
if (ST == 1 && (NB == 2)){                        // Checks if the buttonmap combo is still held. 
     c78:	81 30       	cpi	r24, 0x01	; 1
     c7a:	91 05       	cpc	r25, r1
     c7c:	09 f0       	breq	.+2      	; 0xc80 <__stack+0x781>
     c7e:	94 c0       	rjmp	.+296    	; 0xda8 <__stack+0x8a9>
     c80:	22 30       	cpi	r18, 0x02	; 2
     c82:	31 05       	cpc	r19, r1
     c84:	09 f0       	breq	.+2      	; 0xc88 <__stack+0x789>
     c86:	90 c0       	rjmp	.+288    	; 0xda8 <__stack+0x8a9>
Z:\Projects\PS1\PSX-Controller-DB-15-Adapter\Code\Psx_To_DB-15_REMAP_AF/Psx_To_DB-15_REMAP_AF.ino:443
 TRO = 0;                                          // Resets all buttonmap values to 0
     c88:	10 92 0b 01 	sts	0x010B, r1	; 0x80010b <TRO+0x1>
     c8c:	10 92 0a 01 	sts	0x010A, r1	; 0x80010a <TRO>
Z:\Projects\PS1\PSX-Controller-DB-15-Adapter\Code\Psx_To_DB-15_REMAP_AF/Psx_To_DB-15_REMAP_AF.ino:444
 SQO = 0;
     c90:	10 92 09 01 	sts	0x0109, r1	; 0x800109 <SQO+0x1>
     c94:	10 92 08 01 	sts	0x0108, r1	; 0x800108 <SQO>
Z:\Projects\PS1\PSX-Controller-DB-15-Adapter\Code\Psx_To_DB-15_REMAP_AF/Psx_To_DB-15_REMAP_AF.ino:445
 R2O = 0;
     c98:	10 92 07 01 	sts	0x0107, r1	; 0x800107 <R2O+0x1>
     c9c:	10 92 06 01 	sts	0x0106, r1	; 0x800106 <R2O>
Z:\Projects\PS1\PSX-Controller-DB-15-Adapter\Code\Psx_To_DB-15_REMAP_AF/Psx_To_DB-15_REMAP_AF.ino:446
 OO = 0;
     ca0:	10 92 05 01 	sts	0x0105, r1	; 0x800105 <OO+0x1>
     ca4:	10 92 04 01 	sts	0x0104, r1	; 0x800104 <OO>
Z:\Projects\PS1\PSX-Controller-DB-15-Adapter\Code\Psx_To_DB-15_REMAP_AF/Psx_To_DB-15_REMAP_AF.ino:447
 XO = 0;
     ca8:	10 92 03 01 	sts	0x0103, r1	; 0x800103 <XO+0x1>
     cac:	10 92 02 01 	sts	0x0102, r1	; 0x800102 <XO>
Z:\Projects\PS1\PSX-Controller-DB-15-Adapter\Code\Psx_To_DB-15_REMAP_AF/Psx_To_DB-15_REMAP_AF.ino:448
 R1O = 0;
     cb0:	10 92 01 01 	sts	0x0101, r1	; 0x800101 <__data_start+0x1>
     cb4:	10 92 00 01 	sts	0x0100, r1	; 0x800100 <__data_start>
Z:\Projects\PS1\PSX-Controller-DB-15-Adapter\Code\Psx_To_DB-15_REMAP_AF/Psx_To_DB-15_REMAP_AF.ino:449
 L1O = 0;
     cb8:	10 92 1d 01 	sts	0x011D, r1	; 0x80011d <L1O+0x1>
     cbc:	10 92 1c 01 	sts	0x011C, r1	; 0x80011c <L1O>
Z:\Projects\PS1\PSX-Controller-DB-15-Adapter\Code\Psx_To_DB-15_REMAP_AF/Psx_To_DB-15_REMAP_AF.ino:450
 L2O = 0;
     cc0:	10 92 1b 01 	sts	0x011B, r1	; 0x80011b <L2O+0x1>
     cc4:	10 92 1a 01 	sts	0x011A, r1	; 0x80011a <L2O>
autofiremapping():
Z:\Projects\PS1\PSX-Controller-DB-15-Adapter\Code\Psx_To_DB-15_REMAP_AF/Psx_To_DB-15_REMAP_AF.ino:534
 XA = 0;
 R1A = 0;
 L1A = 0;
 L2A = 0;
   outputd = 0;
 outputd |= 1;
     cc8:	90 93 73 01 	sts	0x0173, r25	; 0x800173 <outputd+0x1>
     ccc:	80 93 72 01 	sts	0x0172, r24	; 0x800172 <outputd>
Z:\Projects\PS1\PSX-Controller-DB-15-Adapter\Code\Psx_To_DB-15_REMAP_AF/Psx_To_DB-15_REMAP_AF.ino:535
 DDRD = outputd;
     cd0:	81 e0       	ldi	r24, 0x01	; 1
     cd2:	8a b9       	out	0x0a, r24	; 10
loop():
Z:\Projects\PS1\PSX-Controller-DB-15-Adapter\Code\Psx_To_DB-15_REMAP_AF/Psx_To_DB-15_REMAP_AF.ino:169
  autofiremapping();
}else{
  setautofire();
  setoutputs(); 
  }
  DDRB = outputb;                // Sets PORTB and PORTD outputs based on inputs and the chosen buttonmap.
     cd4:	80 91 74 01 	lds	r24, 0x0174	; 0x800174 <outputb>
     cd8:	84 b9       	out	0x04, r24	; 4
Z:\Projects\PS1\PSX-Controller-DB-15-Adapter\Code\Psx_To_DB-15_REMAP_AF/Psx_To_DB-15_REMAP_AF.ino:170
  DDRD = outputd;
     cda:	80 91 72 01 	lds	r24, 0x0172	; 0x800172 <outputd>
     cde:	8a b9       	out	0x0a, r24	; 10
Z:\Projects\PS1\PSX-Controller-DB-15-Adapter\Code\Psx_To_DB-15_REMAP_AF/Psx_To_DB-15_REMAP_AF.ino:171
   delayMicroseconds(13700);
     ce0:	84 e8       	ldi	r24, 0x84	; 132
     ce2:	95 e3       	ldi	r25, 0x35	; 53
     ce4:	7c da       	rcall	.-2824   	; 0x1de <delayMicroseconds>
main():
C:\Users\caleb\AppData\Local\Arduino15\packages\MiniCore\hardware\avr\3.0.1\cores\MCUdude_corefiles/main.cpp:47
  
  setup();
    
  for (;;) {
    loop();
    if (serialEventRun) serialEventRun();
     ce6:	20 e0       	ldi	r18, 0x00	; 0
     ce8:	30 e0       	ldi	r19, 0x00	; 0
     cea:	23 2b       	or	r18, r19
     cec:	09 f4       	brne	.+2      	; 0xcf0 <__stack+0x7f1>
     cee:	a8 cc       	rjmp	.-1712   	; 0x640 <__stack+0x141>
     cf0:	87 d9       	rcall	.-3314   	; 0x0 <__vectors>
     cf2:	a6 cc       	rjmp	.-1716   	; 0x640 <__stack+0x141>
buttoncombos():
Z:\Projects\PS1\PSX-Controller-DB-15-Adapter\Code\Psx_To_DB-15_REMAP_AF/Psx_To_DB-15_REMAP_AF.ino:361

void buttoncombos(){
if (L1C == 1 && (R1C == 1 && (SL == 1 && (L1P == 1 && (R1P == 1 && (SLP == 1)))))){        // Checks if Start and 3 buttons are pressed. 
  HAScount = (HAScount + 1);
}else{ 
  HAScount = 0;
     cf4:	10 92 17 01 	sts	0x0117, r1	; 0x800117 <HAScount+0x1>
     cf8:	10 92 16 01 	sts	0x0116, r1	; 0x800116 <HAScount>
     cfc:	8d ce       	rjmp	.-742    	; 0xa18 <__stack+0x519>
Z:\Projects\PS1\PSX-Controller-DB-15-Adapter\Code\Psx_To_DB-15_REMAP_AF/Psx_To_DB-15_REMAP_AF.ino:393
XA = EEPROM.read(11);
R1A = EEPROM.read(12);
L1A = EEPROM.read(15);
L2A = EEPROM.read(16);
  }else{   
    DDRD |= 1;
     cfe:	50 9a       	sbi	0x0a, 0	; 10
Z:\Projects\PS1\PSX-Controller-DB-15-Adapter\Code\Psx_To_DB-15_REMAP_AF/Psx_To_DB-15_REMAP_AF.ino:394
   delay(1000);
     d00:	68 ee       	ldi	r22, 0xE8	; 232
     d02:	73 e0       	ldi	r23, 0x03	; 3
     d04:	80 e0       	ldi	r24, 0x00	; 0
     d06:	90 e0       	ldi	r25, 0x00	; 0
     d08:	0e db       	rcall	.-2532   	; 0x326 <delay>
Z:\Projects\PS1\PSX-Controller-DB-15-Adapter\Code\Psx_To_DB-15_REMAP_AF/Psx_To_DB-15_REMAP_AF.ino:395
   DDRD = 0;
     d0a:	1a b8       	out	0x0a, r1	; 10
Z:\Projects\PS1\PSX-Controller-DB-15-Adapter\Code\Psx_To_DB-15_REMAP_AF/Psx_To_DB-15_REMAP_AF.ino:396
   DDRB = 0;                      // Stores the current output map for each input
     d0c:	14 b8       	out	0x04, r1	; 4
Z:\Projects\PS1\PSX-Controller-DB-15-Adapter\Code\Psx_To_DB-15_REMAP_AF/Psx_To_DB-15_REMAP_AF.ino:397
SQO = 1;                     
     d0e:	d0 93 09 01 	sts	0x0109, r29	; 0x800109 <SQO+0x1>
     d12:	c0 93 08 01 	sts	0x0108, r28	; 0x800108 <SQO>
Z:\Projects\PS1\PSX-Controller-DB-15-Adapter\Code\Psx_To_DB-15_REMAP_AF/Psx_To_DB-15_REMAP_AF.ino:398
TRO = 2;
     d16:	22 e0       	ldi	r18, 0x02	; 2
     d18:	30 e0       	ldi	r19, 0x00	; 0
     d1a:	30 93 0b 01 	sts	0x010B, r19	; 0x80010b <TRO+0x1>
     d1e:	20 93 0a 01 	sts	0x010A, r18	; 0x80010a <TRO>
Z:\Projects\PS1\PSX-Controller-DB-15-Adapter\Code\Psx_To_DB-15_REMAP_AF/Psx_To_DB-15_REMAP_AF.ino:399
R1O = 3;
     d22:	30 92 01 01 	sts	0x0101, r3	; 0x800101 <__data_start+0x1>
     d26:	20 92 00 01 	sts	0x0100, r2	; 0x800100 <__data_start>
Z:\Projects\PS1\PSX-Controller-DB-15-Adapter\Code\Psx_To_DB-15_REMAP_AF/Psx_To_DB-15_REMAP_AF.ino:400
XO = 4;
     d2a:	50 92 03 01 	sts	0x0103, r5	; 0x800103 <XO+0x1>
     d2e:	40 92 02 01 	sts	0x0102, r4	; 0x800102 <XO>
Z:\Projects\PS1\PSX-Controller-DB-15-Adapter\Code\Psx_To_DB-15_REMAP_AF/Psx_To_DB-15_REMAP_AF.ino:401
OO = 5;
     d32:	70 92 05 01 	sts	0x0105, r7	; 0x800105 <OO+0x1>
     d36:	60 92 04 01 	sts	0x0104, r6	; 0x800104 <OO>
Z:\Projects\PS1\PSX-Controller-DB-15-Adapter\Code\Psx_To_DB-15_REMAP_AF/Psx_To_DB-15_REMAP_AF.ino:402
R2O = 6;
     d3a:	b0 92 07 01 	sts	0x0107, r11	; 0x800107 <R2O+0x1>
     d3e:	a0 92 06 01 	sts	0x0106, r10	; 0x800106 <R2O>
Z:\Projects\PS1\PSX-Controller-DB-15-Adapter\Code\Psx_To_DB-15_REMAP_AF/Psx_To_DB-15_REMAP_AF.ino:403
L1O = 0;
     d42:	10 92 1d 01 	sts	0x011D, r1	; 0x80011d <L1O+0x1>
     d46:	10 92 1c 01 	sts	0x011C, r1	; 0x80011c <L1O>
Z:\Projects\PS1\PSX-Controller-DB-15-Adapter\Code\Psx_To_DB-15_REMAP_AF/Psx_To_DB-15_REMAP_AF.ino:404
L2O = 0;
     d4a:	10 92 1b 01 	sts	0x011B, r1	; 0x80011b <L2O+0x1>
     d4e:	10 92 1a 01 	sts	0x011A, r1	; 0x80011a <L2O>
Z:\Projects\PS1\PSX-Controller-DB-15-Adapter\Code\Psx_To_DB-15_REMAP_AF/Psx_To_DB-15_REMAP_AF.ino:405
TRA = 0;                      // Stores the current autofire setting for each input
     d52:	10 92 51 01 	sts	0x0151, r1	; 0x800151 <TRA+0x1>
     d56:	10 92 50 01 	sts	0x0150, r1	; 0x800150 <TRA>
Z:\Projects\PS1\PSX-Controller-DB-15-Adapter\Code\Psx_To_DB-15_REMAP_AF/Psx_To_DB-15_REMAP_AF.ino:406
SQA = 0;
     d5a:	10 92 4f 01 	sts	0x014F, r1	; 0x80014f <SQA+0x1>
     d5e:	10 92 4e 01 	sts	0x014E, r1	; 0x80014e <SQA>
Z:\Projects\PS1\PSX-Controller-DB-15-Adapter\Code\Psx_To_DB-15_REMAP_AF/Psx_To_DB-15_REMAP_AF.ino:407
R2A = 0;
     d62:	10 92 4d 01 	sts	0x014D, r1	; 0x80014d <R2A+0x1>
     d66:	10 92 4c 01 	sts	0x014C, r1	; 0x80014c <R2A>
Z:\Projects\PS1\PSX-Controller-DB-15-Adapter\Code\Psx_To_DB-15_REMAP_AF/Psx_To_DB-15_REMAP_AF.ino:408
OA = 0;
     d6a:	10 92 4b 01 	sts	0x014B, r1	; 0x80014b <OA+0x1>
     d6e:	10 92 4a 01 	sts	0x014A, r1	; 0x80014a <OA>
Z:\Projects\PS1\PSX-Controller-DB-15-Adapter\Code\Psx_To_DB-15_REMAP_AF/Psx_To_DB-15_REMAP_AF.ino:409
XA = 0;
     d72:	10 92 49 01 	sts	0x0149, r1	; 0x800149 <XA+0x1>
     d76:	10 92 48 01 	sts	0x0148, r1	; 0x800148 <XA>
Z:\Projects\PS1\PSX-Controller-DB-15-Adapter\Code\Psx_To_DB-15_REMAP_AF/Psx_To_DB-15_REMAP_AF.ino:410
R1A = 0;
     d7a:	10 92 47 01 	sts	0x0147, r1	; 0x800147 <R1A+0x1>
     d7e:	10 92 46 01 	sts	0x0146, r1	; 0x800146 <R1A>
Z:\Projects\PS1\PSX-Controller-DB-15-Adapter\Code\Psx_To_DB-15_REMAP_AF/Psx_To_DB-15_REMAP_AF.ino:411
L1A = 0;
     d82:	10 92 45 01 	sts	0x0145, r1	; 0x800145 <L1A+0x1>
     d86:	10 92 44 01 	sts	0x0144, r1	; 0x800144 <L1A>
Z:\Projects\PS1\PSX-Controller-DB-15-Adapter\Code\Psx_To_DB-15_REMAP_AF/Psx_To_DB-15_REMAP_AF.ino:412
L2A = 0;
     d8a:	10 92 43 01 	sts	0x0143, r1	; 0x800143 <L2A+0x1>
     d8e:	10 92 42 01 	sts	0x0142, r1	; 0x800142 <L2A>
     d92:	f1 ce       	rjmp	.-542    	; 0xb76 <__stack+0x677>
Z:\Projects\PS1\PSX-Controller-DB-15-Adapter\Code\Psx_To_DB-15_REMAP_AF/Psx_To_DB-15_REMAP_AF.ino:422
}
  
if (ST == 1 && (NB == 2 && (STP == 1 && (HASmode == 0)))){        // Checks if Start and 2 buttons are pressed. 
  remapcount = (remapcount + 1);
}else{ 
  remapcount = 0;
     d94:	10 92 13 01 	sts	0x0113, r1	; 0x800113 <remapcount+0x1>
     d98:	10 92 12 01 	sts	0x0112, r1	; 0x800112 <remapcount>
     d9c:	1a cf       	rjmp	.-460    	; 0xbd2 <__stack+0x6d3>
Z:\Projects\PS1\PSX-Controller-DB-15-Adapter\Code\Psx_To_DB-15_REMAP_AF/Psx_To_DB-15_REMAP_AF.ino:432
buttonmap = 1;                // Sets buttonmap mode to 1 
 }
 if (ST == 1 && (NB == 1 && (STP == 1 && (HASmode == 0)))){        // Checks if Start and 2 buttons are pressed. 
  autofirecount = (autofirecount + 1);
}else{ 
  autofirecount = 0;
     d9e:	10 92 11 01 	sts	0x0111, r1	; 0x800111 <autofirecount+0x1>
     da2:	10 92 10 01 	sts	0x0110, r1	; 0x800110 <autofirecount>
     da6:	49 cf       	rjmp	.-366    	; 0xc3a <__stack+0x73b>
buttonmapping():
Z:\Projects\PS1\PSX-Controller-DB-15-Adapter\Code\Psx_To_DB-15_REMAP_AF/Psx_To_DB-15_REMAP_AF.ino:455
 L2O = 0;
  outputd = 0;
 outputd |= 1;
 DDRD = outputd;
}else{// If buttonmap combo is no longer pressed, continue to button mapping mode
outputd |= 1;
     da8:	80 91 72 01 	lds	r24, 0x0172	; 0x800172 <outputd>
     dac:	90 91 73 01 	lds	r25, 0x0173	; 0x800173 <outputd+0x1>
     db0:	81 60       	ori	r24, 0x01	; 1
     db2:	90 93 73 01 	sts	0x0173, r25	; 0x800173 <outputd+0x1>
     db6:	80 93 72 01 	sts	0x0172, r24	; 0x800172 <outputd>
Z:\Projects\PS1\PSX-Controller-DB-15-Adapter\Code\Psx_To_DB-15_REMAP_AF/Psx_To_DB-15_REMAP_AF.ino:456
if (TRC == 1 && (TRP == 0 && (NB == 1))){            // If X is currently pressed, if X was previously not pressed, if only one button (X) is pressed and if XO is less than 6
     dba:	80 91 3e 01 	lds	r24, 0x013E	; 0x80013e <TRC>
     dbe:	90 91 3f 01 	lds	r25, 0x013F	; 0x80013f <TRC+0x1>
     dc2:	01 97       	sbiw	r24, 0x01	; 1
     dc4:	91 f4       	brne	.+36     	; 0xdea <__stack+0x8eb>
     dc6:	80 91 3c 01 	lds	r24, 0x013C	; 0x80013c <TRP>
     dca:	90 91 3d 01 	lds	r25, 0x013D	; 0x80013d <TRP+0x1>
     dce:	89 2b       	or	r24, r25
     dd0:	61 f4       	brne	.+24     	; 0xdea <__stack+0x8eb>
     dd2:	21 30       	cpi	r18, 0x01	; 1
     dd4:	31 05       	cpc	r19, r1
     dd6:	49 f4       	brne	.+18     	; 0xdea <__stack+0x8eb>
Z:\Projects\PS1\PSX-Controller-DB-15-Adapter\Code\Psx_To_DB-15_REMAP_AF/Psx_To_DB-15_REMAP_AF.ino:457
  TRO = (TRO + 1);                                             // If all of the above conditions are met, TRO is iterated +1
     dd8:	80 91 0a 01 	lds	r24, 0x010A	; 0x80010a <TRO>
     ddc:	90 91 0b 01 	lds	r25, 0x010B	; 0x80010b <TRO+0x1>
     de0:	01 96       	adiw	r24, 0x01	; 1
     de2:	90 93 0b 01 	sts	0x010B, r25	; 0x80010b <TRO+0x1>
     de6:	80 93 0a 01 	sts	0x010A, r24	; 0x80010a <TRO>
Z:\Projects\PS1\PSX-Controller-DB-15-Adapter\Code\Psx_To_DB-15_REMAP_AF/Psx_To_DB-15_REMAP_AF.ino:459
}
if (TRO > 6){                                       // If TRO is greater than 6, TRO is reset to 0
     dea:	80 91 0a 01 	lds	r24, 0x010A	; 0x80010a <TRO>
     dee:	90 91 0b 01 	lds	r25, 0x010B	; 0x80010b <TRO+0x1>
     df2:	07 97       	sbiw	r24, 0x07	; 7
     df4:	24 f0       	brlt	.+8      	; 0xdfe <__stack+0x8ff>
Z:\Projects\PS1\PSX-Controller-DB-15-Adapter\Code\Psx_To_DB-15_REMAP_AF/Psx_To_DB-15_REMAP_AF.ino:460
  TRO = 0;
     df6:	10 92 0b 01 	sts	0x010B, r1	; 0x80010b <TRO+0x1>
     dfa:	10 92 0a 01 	sts	0x010A, r1	; 0x80010a <TRO>
Z:\Projects\PS1\PSX-Controller-DB-15-Adapter\Code\Psx_To_DB-15_REMAP_AF/Psx_To_DB-15_REMAP_AF.ino:462
}
if (SQC == 1 && (SQP == 0 && (NB == 1))){
     dfe:	80 91 3a 01 	lds	r24, 0x013A	; 0x80013a <SQC>
     e02:	90 91 3b 01 	lds	r25, 0x013B	; 0x80013b <SQC+0x1>
     e06:	01 97       	sbiw	r24, 0x01	; 1
     e08:	91 f4       	brne	.+36     	; 0xe2e <__stack+0x92f>
     e0a:	80 91 38 01 	lds	r24, 0x0138	; 0x800138 <SQP>
     e0e:	90 91 39 01 	lds	r25, 0x0139	; 0x800139 <SQP+0x1>
     e12:	89 2b       	or	r24, r25
     e14:	61 f4       	brne	.+24     	; 0xe2e <__stack+0x92f>
     e16:	21 30       	cpi	r18, 0x01	; 1
     e18:	31 05       	cpc	r19, r1
     e1a:	49 f4       	brne	.+18     	; 0xe2e <__stack+0x92f>
Z:\Projects\PS1\PSX-Controller-DB-15-Adapter\Code\Psx_To_DB-15_REMAP_AF/Psx_To_DB-15_REMAP_AF.ino:463
  SQO = (SQO + 1);
     e1c:	80 91 08 01 	lds	r24, 0x0108	; 0x800108 <SQO>
     e20:	90 91 09 01 	lds	r25, 0x0109	; 0x800109 <SQO+0x1>
     e24:	01 96       	adiw	r24, 0x01	; 1
     e26:	90 93 09 01 	sts	0x0109, r25	; 0x800109 <SQO+0x1>
     e2a:	80 93 08 01 	sts	0x0108, r24	; 0x800108 <SQO>
Z:\Projects\PS1\PSX-Controller-DB-15-Adapter\Code\Psx_To_DB-15_REMAP_AF/Psx_To_DB-15_REMAP_AF.ino:465
}
if (SQO > 6){
     e2e:	80 91 08 01 	lds	r24, 0x0108	; 0x800108 <SQO>
     e32:	90 91 09 01 	lds	r25, 0x0109	; 0x800109 <SQO+0x1>
     e36:	07 97       	sbiw	r24, 0x07	; 7
     e38:	24 f0       	brlt	.+8      	; 0xe42 <__stack+0x943>
Z:\Projects\PS1\PSX-Controller-DB-15-Adapter\Code\Psx_To_DB-15_REMAP_AF/Psx_To_DB-15_REMAP_AF.ino:466
  SQO = 0;
     e3a:	10 92 09 01 	sts	0x0109, r1	; 0x800109 <SQO+0x1>
     e3e:	10 92 08 01 	sts	0x0108, r1	; 0x800108 <SQO>
Z:\Projects\PS1\PSX-Controller-DB-15-Adapter\Code\Psx_To_DB-15_REMAP_AF/Psx_To_DB-15_REMAP_AF.ino:468
}
if (R2C == 1 && (R2P == 0 && (NB == 1))){
     e42:	80 91 36 01 	lds	r24, 0x0136	; 0x800136 <R2C>
     e46:	90 91 37 01 	lds	r25, 0x0137	; 0x800137 <R2C+0x1>
     e4a:	01 97       	sbiw	r24, 0x01	; 1
     e4c:	91 f4       	brne	.+36     	; 0xe72 <__stack+0x973>
     e4e:	80 91 34 01 	lds	r24, 0x0134	; 0x800134 <R2P>
     e52:	90 91 35 01 	lds	r25, 0x0135	; 0x800135 <R2P+0x1>
     e56:	89 2b       	or	r24, r25
     e58:	61 f4       	brne	.+24     	; 0xe72 <__stack+0x973>
     e5a:	21 30       	cpi	r18, 0x01	; 1
     e5c:	31 05       	cpc	r19, r1
     e5e:	49 f4       	brne	.+18     	; 0xe72 <__stack+0x973>
Z:\Projects\PS1\PSX-Controller-DB-15-Adapter\Code\Psx_To_DB-15_REMAP_AF/Psx_To_DB-15_REMAP_AF.ino:469
  R2O = (R2O + 1);
     e60:	80 91 06 01 	lds	r24, 0x0106	; 0x800106 <R2O>
     e64:	90 91 07 01 	lds	r25, 0x0107	; 0x800107 <R2O+0x1>
     e68:	01 96       	adiw	r24, 0x01	; 1
     e6a:	90 93 07 01 	sts	0x0107, r25	; 0x800107 <R2O+0x1>
     e6e:	80 93 06 01 	sts	0x0106, r24	; 0x800106 <R2O>
Z:\Projects\PS1\PSX-Controller-DB-15-Adapter\Code\Psx_To_DB-15_REMAP_AF/Psx_To_DB-15_REMAP_AF.ino:471
}
if (R2O > 6){
     e72:	80 91 06 01 	lds	r24, 0x0106	; 0x800106 <R2O>
     e76:	90 91 07 01 	lds	r25, 0x0107	; 0x800107 <R2O+0x1>
     e7a:	07 97       	sbiw	r24, 0x07	; 7
     e7c:	24 f0       	brlt	.+8      	; 0xe86 <__stack+0x987>
Z:\Projects\PS1\PSX-Controller-DB-15-Adapter\Code\Psx_To_DB-15_REMAP_AF/Psx_To_DB-15_REMAP_AF.ino:472
  R2O = 0;
     e7e:	10 92 07 01 	sts	0x0107, r1	; 0x800107 <R2O+0x1>
     e82:	10 92 06 01 	sts	0x0106, r1	; 0x800106 <R2O>
Z:\Projects\PS1\PSX-Controller-DB-15-Adapter\Code\Psx_To_DB-15_REMAP_AF/Psx_To_DB-15_REMAP_AF.ino:474
}
if (L1C == 1 && (L1P == 0 && (NB == 1))){
     e86:	80 91 26 01 	lds	r24, 0x0126	; 0x800126 <L1C>
     e8a:	90 91 27 01 	lds	r25, 0x0127	; 0x800127 <L1C+0x1>
     e8e:	01 97       	sbiw	r24, 0x01	; 1
     e90:	91 f4       	brne	.+36     	; 0xeb6 <__stack+0x9b7>
     e92:	80 91 24 01 	lds	r24, 0x0124	; 0x800124 <L1P>
     e96:	90 91 25 01 	lds	r25, 0x0125	; 0x800125 <L1P+0x1>
     e9a:	89 2b       	or	r24, r25
     e9c:	61 f4       	brne	.+24     	; 0xeb6 <__stack+0x9b7>
     e9e:	21 30       	cpi	r18, 0x01	; 1
     ea0:	31 05       	cpc	r19, r1
     ea2:	49 f4       	brne	.+18     	; 0xeb6 <__stack+0x9b7>
Z:\Projects\PS1\PSX-Controller-DB-15-Adapter\Code\Psx_To_DB-15_REMAP_AF/Psx_To_DB-15_REMAP_AF.ino:475
  L1O = (L1O + 1);
     ea4:	80 91 1c 01 	lds	r24, 0x011C	; 0x80011c <L1O>
     ea8:	90 91 1d 01 	lds	r25, 0x011D	; 0x80011d <L1O+0x1>
     eac:	01 96       	adiw	r24, 0x01	; 1
     eae:	90 93 1d 01 	sts	0x011D, r25	; 0x80011d <L1O+0x1>
     eb2:	80 93 1c 01 	sts	0x011C, r24	; 0x80011c <L1O>
Z:\Projects\PS1\PSX-Controller-DB-15-Adapter\Code\Psx_To_DB-15_REMAP_AF/Psx_To_DB-15_REMAP_AF.ino:477
}
if (L1O > 6){
     eb6:	80 91 1c 01 	lds	r24, 0x011C	; 0x80011c <L1O>
     eba:	90 91 1d 01 	lds	r25, 0x011D	; 0x80011d <L1O+0x1>
     ebe:	07 97       	sbiw	r24, 0x07	; 7
     ec0:	24 f0       	brlt	.+8      	; 0xeca <__stack+0x9cb>
Z:\Projects\PS1\PSX-Controller-DB-15-Adapter\Code\Psx_To_DB-15_REMAP_AF/Psx_To_DB-15_REMAP_AF.ino:478
  L1O = 0;
     ec2:	10 92 1d 01 	sts	0x011D, r1	; 0x80011d <L1O+0x1>
     ec6:	10 92 1c 01 	sts	0x011C, r1	; 0x80011c <L1O>
Z:\Projects\PS1\PSX-Controller-DB-15-Adapter\Code\Psx_To_DB-15_REMAP_AF/Psx_To_DB-15_REMAP_AF.ino:480
}
if (L2C == 1 && (L2P == 0 && (NB == 1))){
     eca:	80 91 22 01 	lds	r24, 0x0122	; 0x800122 <L2C>
     ece:	90 91 23 01 	lds	r25, 0x0123	; 0x800123 <L2C+0x1>
     ed2:	01 97       	sbiw	r24, 0x01	; 1
     ed4:	91 f4       	brne	.+36     	; 0xefa <__stack+0x9fb>
     ed6:	80 91 20 01 	lds	r24, 0x0120	; 0x800120 <L2P>
     eda:	90 91 21 01 	lds	r25, 0x0121	; 0x800121 <L2P+0x1>
     ede:	89 2b       	or	r24, r25
     ee0:	61 f4       	brne	.+24     	; 0xefa <__stack+0x9fb>
     ee2:	21 30       	cpi	r18, 0x01	; 1
     ee4:	31 05       	cpc	r19, r1
     ee6:	49 f4       	brne	.+18     	; 0xefa <__stack+0x9fb>
Z:\Projects\PS1\PSX-Controller-DB-15-Adapter\Code\Psx_To_DB-15_REMAP_AF/Psx_To_DB-15_REMAP_AF.ino:481
  L2O = (L2O + 1);
     ee8:	80 91 1a 01 	lds	r24, 0x011A	; 0x80011a <L2O>
     eec:	90 91 1b 01 	lds	r25, 0x011B	; 0x80011b <L2O+0x1>
     ef0:	01 96       	adiw	r24, 0x01	; 1
     ef2:	90 93 1b 01 	sts	0x011B, r25	; 0x80011b <L2O+0x1>
     ef6:	80 93 1a 01 	sts	0x011A, r24	; 0x80011a <L2O>
Z:\Projects\PS1\PSX-Controller-DB-15-Adapter\Code\Psx_To_DB-15_REMAP_AF/Psx_To_DB-15_REMAP_AF.ino:483
}
if (L2O > 6){
     efa:	80 91 1a 01 	lds	r24, 0x011A	; 0x80011a <L2O>
     efe:	90 91 1b 01 	lds	r25, 0x011B	; 0x80011b <L2O+0x1>
     f02:	07 97       	sbiw	r24, 0x07	; 7
     f04:	24 f0       	brlt	.+8      	; 0xf0e <__stack+0xa0f>
Z:\Projects\PS1\PSX-Controller-DB-15-Adapter\Code\Psx_To_DB-15_REMAP_AF/Psx_To_DB-15_REMAP_AF.ino:484
  L2O = 0;
     f06:	10 92 1b 01 	sts	0x011B, r1	; 0x80011b <L2O+0x1>
     f0a:	10 92 1a 01 	sts	0x011A, r1	; 0x80011a <L2O>
Z:\Projects\PS1\PSX-Controller-DB-15-Adapter\Code\Psx_To_DB-15_REMAP_AF/Psx_To_DB-15_REMAP_AF.ino:486
}
if (OC == 1 && (OP == 0 && (NB == 1))){
     f0e:	80 91 32 01 	lds	r24, 0x0132	; 0x800132 <OC>
     f12:	90 91 33 01 	lds	r25, 0x0133	; 0x800133 <OC+0x1>
     f16:	01 97       	sbiw	r24, 0x01	; 1
     f18:	91 f4       	brne	.+36     	; 0xf3e <__stack+0xa3f>
     f1a:	80 91 30 01 	lds	r24, 0x0130	; 0x800130 <OP>
     f1e:	90 91 31 01 	lds	r25, 0x0131	; 0x800131 <OP+0x1>
     f22:	89 2b       	or	r24, r25
     f24:	61 f4       	brne	.+24     	; 0xf3e <__stack+0xa3f>
     f26:	21 30       	cpi	r18, 0x01	; 1
     f28:	31 05       	cpc	r19, r1
     f2a:	49 f4       	brne	.+18     	; 0xf3e <__stack+0xa3f>
Z:\Projects\PS1\PSX-Controller-DB-15-Adapter\Code\Psx_To_DB-15_REMAP_AF/Psx_To_DB-15_REMAP_AF.ino:487
  OO = (OO + 1);
     f2c:	80 91 04 01 	lds	r24, 0x0104	; 0x800104 <OO>
     f30:	90 91 05 01 	lds	r25, 0x0105	; 0x800105 <OO+0x1>
     f34:	01 96       	adiw	r24, 0x01	; 1
     f36:	90 93 05 01 	sts	0x0105, r25	; 0x800105 <OO+0x1>
     f3a:	80 93 04 01 	sts	0x0104, r24	; 0x800104 <OO>
Z:\Projects\PS1\PSX-Controller-DB-15-Adapter\Code\Psx_To_DB-15_REMAP_AF/Psx_To_DB-15_REMAP_AF.ino:489
}
if (OO > 6){
     f3e:	80 91 04 01 	lds	r24, 0x0104	; 0x800104 <OO>
     f42:	90 91 05 01 	lds	r25, 0x0105	; 0x800105 <OO+0x1>
     f46:	07 97       	sbiw	r24, 0x07	; 7
     f48:	24 f0       	brlt	.+8      	; 0xf52 <__stack+0xa53>
Z:\Projects\PS1\PSX-Controller-DB-15-Adapter\Code\Psx_To_DB-15_REMAP_AF/Psx_To_DB-15_REMAP_AF.ino:490
  OO = 0;
     f4a:	10 92 05 01 	sts	0x0105, r1	; 0x800105 <OO+0x1>
     f4e:	10 92 04 01 	sts	0x0104, r1	; 0x800104 <OO>
Z:\Projects\PS1\PSX-Controller-DB-15-Adapter\Code\Psx_To_DB-15_REMAP_AF/Psx_To_DB-15_REMAP_AF.ino:492
}
if (XC == 1 && (XP == 0 && (NB == 1))){
     f52:	80 91 2e 01 	lds	r24, 0x012E	; 0x80012e <XC>
     f56:	90 91 2f 01 	lds	r25, 0x012F	; 0x80012f <XC+0x1>
     f5a:	01 97       	sbiw	r24, 0x01	; 1
     f5c:	91 f4       	brne	.+36     	; 0xf82 <__stack+0xa83>
     f5e:	80 91 2c 01 	lds	r24, 0x012C	; 0x80012c <XP>
     f62:	90 91 2d 01 	lds	r25, 0x012D	; 0x80012d <XP+0x1>
     f66:	89 2b       	or	r24, r25
     f68:	61 f4       	brne	.+24     	; 0xf82 <__stack+0xa83>
     f6a:	21 30       	cpi	r18, 0x01	; 1
     f6c:	31 05       	cpc	r19, r1
     f6e:	49 f4       	brne	.+18     	; 0xf82 <__stack+0xa83>
Z:\Projects\PS1\PSX-Controller-DB-15-Adapter\Code\Psx_To_DB-15_REMAP_AF/Psx_To_DB-15_REMAP_AF.ino:493
  XO = (XO + 1);
     f70:	80 91 02 01 	lds	r24, 0x0102	; 0x800102 <XO>
     f74:	90 91 03 01 	lds	r25, 0x0103	; 0x800103 <XO+0x1>
     f78:	01 96       	adiw	r24, 0x01	; 1
     f7a:	90 93 03 01 	sts	0x0103, r25	; 0x800103 <XO+0x1>
     f7e:	80 93 02 01 	sts	0x0102, r24	; 0x800102 <XO>
Z:\Projects\PS1\PSX-Controller-DB-15-Adapter\Code\Psx_To_DB-15_REMAP_AF/Psx_To_DB-15_REMAP_AF.ino:495
}
if (XO > 6){
     f82:	80 91 02 01 	lds	r24, 0x0102	; 0x800102 <XO>
     f86:	90 91 03 01 	lds	r25, 0x0103	; 0x800103 <XO+0x1>
     f8a:	07 97       	sbiw	r24, 0x07	; 7
     f8c:	24 f0       	brlt	.+8      	; 0xf96 <__stack+0xa97>
Z:\Projects\PS1\PSX-Controller-DB-15-Adapter\Code\Psx_To_DB-15_REMAP_AF/Psx_To_DB-15_REMAP_AF.ino:496
  XO = 0;
     f8e:	10 92 03 01 	sts	0x0103, r1	; 0x800103 <XO+0x1>
     f92:	10 92 02 01 	sts	0x0102, r1	; 0x800102 <XO>
Z:\Projects\PS1\PSX-Controller-DB-15-Adapter\Code\Psx_To_DB-15_REMAP_AF/Psx_To_DB-15_REMAP_AF.ino:498
}
if (R1C == 1 && (R1P == 0 && (NB == 1))){
     f96:	80 91 2a 01 	lds	r24, 0x012A	; 0x80012a <R1C>
     f9a:	90 91 2b 01 	lds	r25, 0x012B	; 0x80012b <R1C+0x1>
     f9e:	01 97       	sbiw	r24, 0x01	; 1
     fa0:	91 f4       	brne	.+36     	; 0xfc6 <__stack+0xac7>
     fa2:	80 91 28 01 	lds	r24, 0x0128	; 0x800128 <R1P>
     fa6:	90 91 29 01 	lds	r25, 0x0129	; 0x800129 <R1P+0x1>
     faa:	89 2b       	or	r24, r25
     fac:	61 f4       	brne	.+24     	; 0xfc6 <__stack+0xac7>
     fae:	21 30       	cpi	r18, 0x01	; 1
     fb0:	31 05       	cpc	r19, r1
     fb2:	49 f4       	brne	.+18     	; 0xfc6 <__stack+0xac7>
Z:\Projects\PS1\PSX-Controller-DB-15-Adapter\Code\Psx_To_DB-15_REMAP_AF/Psx_To_DB-15_REMAP_AF.ino:499
  R1O = (R1O + 1);
     fb4:	80 91 00 01 	lds	r24, 0x0100	; 0x800100 <__data_start>
     fb8:	90 91 01 01 	lds	r25, 0x0101	; 0x800101 <__data_start+0x1>
     fbc:	01 96       	adiw	r24, 0x01	; 1
     fbe:	90 93 01 01 	sts	0x0101, r25	; 0x800101 <__data_start+0x1>
     fc2:	80 93 00 01 	sts	0x0100, r24	; 0x800100 <__data_start>
Z:\Projects\PS1\PSX-Controller-DB-15-Adapter\Code\Psx_To_DB-15_REMAP_AF/Psx_To_DB-15_REMAP_AF.ino:501
}
if (R1O > 6){
     fc6:	80 91 00 01 	lds	r24, 0x0100	; 0x800100 <__data_start>
     fca:	90 91 01 01 	lds	r25, 0x0101	; 0x800101 <__data_start+0x1>
     fce:	07 97       	sbiw	r24, 0x07	; 7
     fd0:	24 f0       	brlt	.+8      	; 0xfda <__stack+0xadb>
Z:\Projects\PS1\PSX-Controller-DB-15-Adapter\Code\Psx_To_DB-15_REMAP_AF/Psx_To_DB-15_REMAP_AF.ino:502
  R1O = 0;
     fd2:	10 92 01 01 	sts	0x0101, r1	; 0x800101 <__data_start+0x1>
     fd6:	10 92 00 01 	sts	0x0100, r1	; 0x800100 <__data_start>
Z:\Projects\PS1\PSX-Controller-DB-15-Adapter\Code\Psx_To_DB-15_REMAP_AF/Psx_To_DB-15_REMAP_AF.ino:504
  }
    if (NB == 1){
     fda:	21 30       	cpi	r18, 0x01	; 1
     fdc:	31 05       	cpc	r19, r1
     fde:	21 f4       	brne	.+8      	; 0xfe8 <__stack+0xae9>
Z:\Projects\PS1\PSX-Controller-DB-15-Adapter\Code\Psx_To_DB-15_REMAP_AF/Psx_To_DB-15_REMAP_AF.ino:505
  outputd = 0;
     fe0:	10 92 73 01 	sts	0x0173, r1	; 0x800173 <outputd+0x1>
     fe4:	10 92 72 01 	sts	0x0172, r1	; 0x800172 <outputd>
Z:\Projects\PS1\PSX-Controller-DB-15-Adapter\Code\Psx_To_DB-15_REMAP_AF/Psx_To_DB-15_REMAP_AF.ino:507
  }
DDRD = outputd;
     fe8:	80 91 72 01 	lds	r24, 0x0172	; 0x800172 <outputd>
     fec:	8a b9       	out	0x0a, r24	; 10
Z:\Projects\PS1\PSX-Controller-DB-15-Adapter\Code\Psx_To_DB-15_REMAP_AF/Psx_To_DB-15_REMAP_AF.ino:508
if (ST == 1 && (STP == 0)){
     fee:	80 91 60 01 	lds	r24, 0x0160	; 0x800160 <ST>
     ff2:	90 91 61 01 	lds	r25, 0x0161	; 0x800161 <ST+0x1>
     ff6:	01 97       	sbiw	r24, 0x01	; 1
     ff8:	09 f0       	breq	.+2      	; 0xffc <__stack+0xafd>
     ffa:	6c ce       	rjmp	.-808    	; 0xcd4 <__stack+0x7d5>
     ffc:	80 91 1e 01 	lds	r24, 0x011E	; 0x80011e <STP>
    1000:	90 91 1f 01 	lds	r25, 0x011F	; 0x80011f <STP+0x1>
    1004:	89 2b       	or	r24, r25
    1006:	09 f0       	breq	.+2      	; 0x100a <__stack+0xb0b>
    1008:	65 ce       	rjmp	.-822    	; 0xcd4 <__stack+0x7d5>
Z:\Projects\PS1\PSX-Controller-DB-15-Adapter\Code\Psx_To_DB-15_REMAP_AF/Psx_To_DB-15_REMAP_AF.ino:509
    buttonmap = 0;
    100a:	10 92 79 01 	sts	0x0179, r1	; 0x800179 <buttonmap+0x1>
    100e:	10 92 78 01 	sts	0x0178, r1	; 0x800178 <buttonmap>
Z:\Projects\PS1\PSX-Controller-DB-15-Adapter\Code\Psx_To_DB-15_REMAP_AF/Psx_To_DB-15_REMAP_AF.ino:510
    EEPROM.write(0,TRO);
    1012:	60 91 0a 01 	lds	r22, 0x010A	; 0x80010a <TRO>
    1016:	90 e0       	ldi	r25, 0x00	; 0
    1018:	80 e0       	ldi	r24, 0x00	; 0
    101a:	b5 d9       	rcall	.-3222   	; 0x386 <EEPROMClass::write(int, unsigned char) [clone .isra.1]>
Z:\Projects\PS1\PSX-Controller-DB-15-Adapter\Code\Psx_To_DB-15_REMAP_AF/Psx_To_DB-15_REMAP_AF.ino:511
    EEPROM.write(1,SQO);
    101c:	60 91 08 01 	lds	r22, 0x0108	; 0x800108 <SQO>
    1020:	81 e0       	ldi	r24, 0x01	; 1
    1022:	90 e0       	ldi	r25, 0x00	; 0
    1024:	b0 d9       	rcall	.-3232   	; 0x386 <EEPROMClass::write(int, unsigned char) [clone .isra.1]>
Z:\Projects\PS1\PSX-Controller-DB-15-Adapter\Code\Psx_To_DB-15_REMAP_AF/Psx_To_DB-15_REMAP_AF.ino:512
    EEPROM.write(2,R2O);
    1026:	60 91 06 01 	lds	r22, 0x0106	; 0x800106 <R2O>
    102a:	82 e0       	ldi	r24, 0x02	; 2
    102c:	90 e0       	ldi	r25, 0x00	; 0
    102e:	ab d9       	rcall	.-3242   	; 0x386 <EEPROMClass::write(int, unsigned char) [clone .isra.1]>
Z:\Projects\PS1\PSX-Controller-DB-15-Adapter\Code\Psx_To_DB-15_REMAP_AF/Psx_To_DB-15_REMAP_AF.ino:513
    EEPROM.write(3,OO);
    1030:	60 91 04 01 	lds	r22, 0x0104	; 0x800104 <OO>
    1034:	83 e0       	ldi	r24, 0x03	; 3
    1036:	90 e0       	ldi	r25, 0x00	; 0
    1038:	a6 d9       	rcall	.-3252   	; 0x386 <EEPROMClass::write(int, unsigned char) [clone .isra.1]>
Z:\Projects\PS1\PSX-Controller-DB-15-Adapter\Code\Psx_To_DB-15_REMAP_AF/Psx_To_DB-15_REMAP_AF.ino:514
    EEPROM.write(4,XO);
    103a:	60 91 02 01 	lds	r22, 0x0102	; 0x800102 <XO>
    103e:	84 e0       	ldi	r24, 0x04	; 4
    1040:	90 e0       	ldi	r25, 0x00	; 0
    1042:	a1 d9       	rcall	.-3262   	; 0x386 <EEPROMClass::write(int, unsigned char) [clone .isra.1]>
Z:\Projects\PS1\PSX-Controller-DB-15-Adapter\Code\Psx_To_DB-15_REMAP_AF/Psx_To_DB-15_REMAP_AF.ino:515
    EEPROM.write(5,R1O);
    1044:	60 91 00 01 	lds	r22, 0x0100	; 0x800100 <__data_start>
    1048:	85 e0       	ldi	r24, 0x05	; 5
    104a:	90 e0       	ldi	r25, 0x00	; 0
    104c:	9c d9       	rcall	.-3272   	; 0x386 <EEPROMClass::write(int, unsigned char) [clone .isra.1]>
Z:\Projects\PS1\PSX-Controller-DB-15-Adapter\Code\Psx_To_DB-15_REMAP_AF/Psx_To_DB-15_REMAP_AF.ino:516
    EEPROM.write(13,L1O);
    104e:	60 91 1c 01 	lds	r22, 0x011C	; 0x80011c <L1O>
    1052:	8d e0       	ldi	r24, 0x0D	; 13
    1054:	90 e0       	ldi	r25, 0x00	; 0
    1056:	97 d9       	rcall	.-3282   	; 0x386 <EEPROMClass::write(int, unsigned char) [clone .isra.1]>
Z:\Projects\PS1\PSX-Controller-DB-15-Adapter\Code\Psx_To_DB-15_REMAP_AF/Psx_To_DB-15_REMAP_AF.ino:517
    EEPROM.write(14,L2O);
    1058:	60 91 1a 01 	lds	r22, 0x011A	; 0x80011a <L2O>
    105c:	8e e0       	ldi	r24, 0x0E	; 14
    105e:	90 e0       	ldi	r25, 0x00	; 0
autofiremapping():
Z:\Projects\PS1\PSX-Controller-DB-15-Adapter\Code\Psx_To_DB-15_REMAP_AF/Psx_To_DB-15_REMAP_AF.ino:599
    EEPROM.write(9,R2A);
    EEPROM.write(10,OA);
    EEPROM.write(11,XA);
    EEPROM.write(12,R1A);
    EEPROM.write(15,L1A);
    EEPROM.write(16,L2A);
    1060:	92 d9       	rcall	.-3292   	; 0x386 <EEPROMClass::write(int, unsigned char) [clone .isra.1]>
    1062:	38 ce       	rjmp	.-912    	; 0xcd4 <__stack+0x7d5>
loop():
Z:\Projects\PS1\PSX-Controller-DB-15-Adapter\Code\Psx_To_DB-15_REMAP_AF/Psx_To_DB-15_REMAP_AF.ino:163
  scaninputs(); 
  buttoncombos();
if (buttonmap == 1){             // Stores output data for PORTB and PORTD based on sixbutton map.
  autofire = 0;
  buttonmapping();
}else if (autofire == 1){
    1064:	20 91 76 01 	lds	r18, 0x0176	; 0x800176 <autofire>
    1068:	30 91 77 01 	lds	r19, 0x0177	; 0x800177 <autofire+0x1>
    106c:	21 30       	cpi	r18, 0x01	; 1
    106e:	31 05       	cpc	r19, r1
    1070:	09 f0       	breq	.+2      	; 0x1074 <__stack+0xb75>
    1072:	88 c1       	rjmp	.+784    	; 0x1384 <__stack+0xe85>
    1074:	20 91 40 01 	lds	r18, 0x0140	; 0x800140 <NB>
    1078:	30 91 41 01 	lds	r19, 0x0141	; 0x800141 <NB+0x1>
autofiremapping():
Z:\Projects\PS1\PSX-Controller-DB-15-Adapter\Code\Psx_To_DB-15_REMAP_AF/Psx_To_DB-15_REMAP_AF.ino:524
  } 
 }
}

void autofiremapping(){
if (ST == 1 && (NB == 1)){                        // Checks if the buttonmap combo is still held. 
    107c:	81 30       	cpi	r24, 0x01	; 1
    107e:	91 05       	cpc	r25, r1
    1080:	21 f5       	brne	.+72     	; 0x10ca <__stack+0xbcb>
    1082:	21 30       	cpi	r18, 0x01	; 1
    1084:	31 05       	cpc	r19, r1
    1086:	09 f5       	brne	.+66     	; 0x10ca <__stack+0xbcb>
Z:\Projects\PS1\PSX-Controller-DB-15-Adapter\Code\Psx_To_DB-15_REMAP_AF/Psx_To_DB-15_REMAP_AF.ino:525
 TRA = 0;                                          // Resets all buttonmap values to 0
    1088:	10 92 51 01 	sts	0x0151, r1	; 0x800151 <TRA+0x1>
    108c:	10 92 50 01 	sts	0x0150, r1	; 0x800150 <TRA>
Z:\Projects\PS1\PSX-Controller-DB-15-Adapter\Code\Psx_To_DB-15_REMAP_AF/Psx_To_DB-15_REMAP_AF.ino:526
 SQA = 0;
    1090:	10 92 4f 01 	sts	0x014F, r1	; 0x80014f <SQA+0x1>
    1094:	10 92 4e 01 	sts	0x014E, r1	; 0x80014e <SQA>
Z:\Projects\PS1\PSX-Controller-DB-15-Adapter\Code\Psx_To_DB-15_REMAP_AF/Psx_To_DB-15_REMAP_AF.ino:527
 R2A = 0;
    1098:	10 92 4d 01 	sts	0x014D, r1	; 0x80014d <R2A+0x1>
    109c:	10 92 4c 01 	sts	0x014C, r1	; 0x80014c <R2A>
Z:\Projects\PS1\PSX-Controller-DB-15-Adapter\Code\Psx_To_DB-15_REMAP_AF/Psx_To_DB-15_REMAP_AF.ino:528
 OA = 0;
    10a0:	10 92 4b 01 	sts	0x014B, r1	; 0x80014b <OA+0x1>
    10a4:	10 92 4a 01 	sts	0x014A, r1	; 0x80014a <OA>
Z:\Projects\PS1\PSX-Controller-DB-15-Adapter\Code\Psx_To_DB-15_REMAP_AF/Psx_To_DB-15_REMAP_AF.ino:529
 XA = 0;
    10a8:	10 92 49 01 	sts	0x0149, r1	; 0x800149 <XA+0x1>
    10ac:	10 92 48 01 	sts	0x0148, r1	; 0x800148 <XA>
Z:\Projects\PS1\PSX-Controller-DB-15-Adapter\Code\Psx_To_DB-15_REMAP_AF/Psx_To_DB-15_REMAP_AF.ino:530
 R1A = 0;
    10b0:	10 92 47 01 	sts	0x0147, r1	; 0x800147 <R1A+0x1>
    10b4:	10 92 46 01 	sts	0x0146, r1	; 0x800146 <R1A>
Z:\Projects\PS1\PSX-Controller-DB-15-Adapter\Code\Psx_To_DB-15_REMAP_AF/Psx_To_DB-15_REMAP_AF.ino:531
 L1A = 0;
    10b8:	10 92 45 01 	sts	0x0145, r1	; 0x800145 <L1A+0x1>
    10bc:	10 92 44 01 	sts	0x0144, r1	; 0x800144 <L1A>
Z:\Projects\PS1\PSX-Controller-DB-15-Adapter\Code\Psx_To_DB-15_REMAP_AF/Psx_To_DB-15_REMAP_AF.ino:532
 L2A = 0;
    10c0:	10 92 43 01 	sts	0x0143, r1	; 0x800143 <L2A+0x1>
    10c4:	10 92 42 01 	sts	0x0142, r1	; 0x800142 <L2A>
    10c8:	ff cd       	rjmp	.-1026   	; 0xcc8 <__stack+0x7c9>
Z:\Projects\PS1\PSX-Controller-DB-15-Adapter\Code\Psx_To_DB-15_REMAP_AF/Psx_To_DB-15_REMAP_AF.ino:537
   outputd = 0;
 outputd |= 1;
 DDRD = outputd;
}else{          // If buttonmap combo is no longer pressed, continue to button mapping mode
outputd |= 1;
    10ca:	80 91 72 01 	lds	r24, 0x0172	; 0x800172 <outputd>
    10ce:	90 91 73 01 	lds	r25, 0x0173	; 0x800173 <outputd+0x1>
    10d2:	81 60       	ori	r24, 0x01	; 1
    10d4:	90 93 73 01 	sts	0x0173, r25	; 0x800173 <outputd+0x1>
    10d8:	80 93 72 01 	sts	0x0172, r24	; 0x800172 <outputd>
Z:\Projects\PS1\PSX-Controller-DB-15-Adapter\Code\Psx_To_DB-15_REMAP_AF/Psx_To_DB-15_REMAP_AF.ino:538
if (TRC == 1 && (TRP == 0 && (NB == 1))){            // If X is currently pressed, if X was previously not pressed, if only one button (X) is pressed and if XO is less than 6
    10dc:	80 91 3e 01 	lds	r24, 0x013E	; 0x80013e <TRC>
    10e0:	90 91 3f 01 	lds	r25, 0x013F	; 0x80013f <TRC+0x1>
    10e4:	01 97       	sbiw	r24, 0x01	; 1
    10e6:	91 f4       	brne	.+36     	; 0x110c <__stack+0xc0d>
    10e8:	80 91 3c 01 	lds	r24, 0x013C	; 0x80013c <TRP>
    10ec:	90 91 3d 01 	lds	r25, 0x013D	; 0x80013d <TRP+0x1>
    10f0:	89 2b       	or	r24, r25
    10f2:	61 f4       	brne	.+24     	; 0x110c <__stack+0xc0d>
    10f4:	21 30       	cpi	r18, 0x01	; 1
    10f6:	31 05       	cpc	r19, r1
    10f8:	49 f4       	brne	.+18     	; 0x110c <__stack+0xc0d>
Z:\Projects\PS1\PSX-Controller-DB-15-Adapter\Code\Psx_To_DB-15_REMAP_AF/Psx_To_DB-15_REMAP_AF.ino:539
  TRA = (TRA + 1);                                             // If all of the above conditions are met, XO is iterated +1
    10fa:	80 91 50 01 	lds	r24, 0x0150	; 0x800150 <TRA>
    10fe:	90 91 51 01 	lds	r25, 0x0151	; 0x800151 <TRA+0x1>
    1102:	01 96       	adiw	r24, 0x01	; 1
    1104:	90 93 51 01 	sts	0x0151, r25	; 0x800151 <TRA+0x1>
    1108:	80 93 50 01 	sts	0x0150, r24	; 0x800150 <TRA>
Z:\Projects\PS1\PSX-Controller-DB-15-Adapter\Code\Psx_To_DB-15_REMAP_AF/Psx_To_DB-15_REMAP_AF.ino:541
}
if (TRA > 6){                                       // If XO is greater than 6, XO is reset to 0
    110c:	80 91 50 01 	lds	r24, 0x0150	; 0x800150 <TRA>
    1110:	90 91 51 01 	lds	r25, 0x0151	; 0x800151 <TRA+0x1>
    1114:	07 97       	sbiw	r24, 0x07	; 7
    1116:	24 f0       	brlt	.+8      	; 0x1120 <__stack+0xc21>
Z:\Projects\PS1\PSX-Controller-DB-15-Adapter\Code\Psx_To_DB-15_REMAP_AF/Psx_To_DB-15_REMAP_AF.ino:542
  TRA = 0;
    1118:	10 92 51 01 	sts	0x0151, r1	; 0x800151 <TRA+0x1>
    111c:	10 92 50 01 	sts	0x0150, r1	; 0x800150 <TRA>
Z:\Projects\PS1\PSX-Controller-DB-15-Adapter\Code\Psx_To_DB-15_REMAP_AF/Psx_To_DB-15_REMAP_AF.ino:544
}
if (SQC == 1 && (SQP == 0 && (NB == 1))){
    1120:	80 91 3a 01 	lds	r24, 0x013A	; 0x80013a <SQC>
    1124:	90 91 3b 01 	lds	r25, 0x013B	; 0x80013b <SQC+0x1>
    1128:	01 97       	sbiw	r24, 0x01	; 1
    112a:	91 f4       	brne	.+36     	; 0x1150 <__stack+0xc51>
    112c:	80 91 38 01 	lds	r24, 0x0138	; 0x800138 <SQP>
    1130:	90 91 39 01 	lds	r25, 0x0139	; 0x800139 <SQP+0x1>
    1134:	89 2b       	or	r24, r25
    1136:	61 f4       	brne	.+24     	; 0x1150 <__stack+0xc51>
    1138:	21 30       	cpi	r18, 0x01	; 1
    113a:	31 05       	cpc	r19, r1
    113c:	49 f4       	brne	.+18     	; 0x1150 <__stack+0xc51>
Z:\Projects\PS1\PSX-Controller-DB-15-Adapter\Code\Psx_To_DB-15_REMAP_AF/Psx_To_DB-15_REMAP_AF.ino:545
  SQA = (SQA + 1);
    113e:	80 91 4e 01 	lds	r24, 0x014E	; 0x80014e <SQA>
    1142:	90 91 4f 01 	lds	r25, 0x014F	; 0x80014f <SQA+0x1>
    1146:	01 96       	adiw	r24, 0x01	; 1
    1148:	90 93 4f 01 	sts	0x014F, r25	; 0x80014f <SQA+0x1>
    114c:	80 93 4e 01 	sts	0x014E, r24	; 0x80014e <SQA>
Z:\Projects\PS1\PSX-Controller-DB-15-Adapter\Code\Psx_To_DB-15_REMAP_AF/Psx_To_DB-15_REMAP_AF.ino:547
}
if (SQA > 6){
    1150:	80 91 4e 01 	lds	r24, 0x014E	; 0x80014e <SQA>
    1154:	90 91 4f 01 	lds	r25, 0x014F	; 0x80014f <SQA+0x1>
    1158:	07 97       	sbiw	r24, 0x07	; 7
    115a:	24 f0       	brlt	.+8      	; 0x1164 <__stack+0xc65>
Z:\Projects\PS1\PSX-Controller-DB-15-Adapter\Code\Psx_To_DB-15_REMAP_AF/Psx_To_DB-15_REMAP_AF.ino:548
  SQA = 0;
    115c:	10 92 4f 01 	sts	0x014F, r1	; 0x80014f <SQA+0x1>
    1160:	10 92 4e 01 	sts	0x014E, r1	; 0x80014e <SQA>
Z:\Projects\PS1\PSX-Controller-DB-15-Adapter\Code\Psx_To_DB-15_REMAP_AF/Psx_To_DB-15_REMAP_AF.ino:550
}
if (R2C == 1 && (R2P == 0 && (NB == 1))){
    1164:	80 91 36 01 	lds	r24, 0x0136	; 0x800136 <R2C>
    1168:	90 91 37 01 	lds	r25, 0x0137	; 0x800137 <R2C+0x1>
    116c:	01 97       	sbiw	r24, 0x01	; 1
    116e:	91 f4       	brne	.+36     	; 0x1194 <__stack+0xc95>
    1170:	80 91 34 01 	lds	r24, 0x0134	; 0x800134 <R2P>
    1174:	90 91 35 01 	lds	r25, 0x0135	; 0x800135 <R2P+0x1>
    1178:	89 2b       	or	r24, r25
    117a:	61 f4       	brne	.+24     	; 0x1194 <__stack+0xc95>
    117c:	21 30       	cpi	r18, 0x01	; 1
    117e:	31 05       	cpc	r19, r1
    1180:	49 f4       	brne	.+18     	; 0x1194 <__stack+0xc95>
Z:\Projects\PS1\PSX-Controller-DB-15-Adapter\Code\Psx_To_DB-15_REMAP_AF/Psx_To_DB-15_REMAP_AF.ino:551
  R2A = (R2A + 1);
    1182:	80 91 4c 01 	lds	r24, 0x014C	; 0x80014c <R2A>
    1186:	90 91 4d 01 	lds	r25, 0x014D	; 0x80014d <R2A+0x1>
    118a:	01 96       	adiw	r24, 0x01	; 1
    118c:	90 93 4d 01 	sts	0x014D, r25	; 0x80014d <R2A+0x1>
    1190:	80 93 4c 01 	sts	0x014C, r24	; 0x80014c <R2A>
Z:\Projects\PS1\PSX-Controller-DB-15-Adapter\Code\Psx_To_DB-15_REMAP_AF/Psx_To_DB-15_REMAP_AF.ino:553
}
if (R2A > 6){
    1194:	80 91 4c 01 	lds	r24, 0x014C	; 0x80014c <R2A>
    1198:	90 91 4d 01 	lds	r25, 0x014D	; 0x80014d <R2A+0x1>
    119c:	07 97       	sbiw	r24, 0x07	; 7
    119e:	24 f0       	brlt	.+8      	; 0x11a8 <__stack+0xca9>
Z:\Projects\PS1\PSX-Controller-DB-15-Adapter\Code\Psx_To_DB-15_REMAP_AF/Psx_To_DB-15_REMAP_AF.ino:554
  R2A = 0;
    11a0:	10 92 4d 01 	sts	0x014D, r1	; 0x80014d <R2A+0x1>
    11a4:	10 92 4c 01 	sts	0x014C, r1	; 0x80014c <R2A>
Z:\Projects\PS1\PSX-Controller-DB-15-Adapter\Code\Psx_To_DB-15_REMAP_AF/Psx_To_DB-15_REMAP_AF.ino:556
}
if (OC == 1 && (OP == 0 && (NB == 1))){
    11a8:	80 91 32 01 	lds	r24, 0x0132	; 0x800132 <OC>
    11ac:	90 91 33 01 	lds	r25, 0x0133	; 0x800133 <OC+0x1>
    11b0:	01 97       	sbiw	r24, 0x01	; 1
    11b2:	91 f4       	brne	.+36     	; 0x11d8 <__stack+0xcd9>
    11b4:	80 91 30 01 	lds	r24, 0x0130	; 0x800130 <OP>
    11b8:	90 91 31 01 	lds	r25, 0x0131	; 0x800131 <OP+0x1>
    11bc:	89 2b       	or	r24, r25
    11be:	61 f4       	brne	.+24     	; 0x11d8 <__stack+0xcd9>
    11c0:	21 30       	cpi	r18, 0x01	; 1
    11c2:	31 05       	cpc	r19, r1
    11c4:	49 f4       	brne	.+18     	; 0x11d8 <__stack+0xcd9>
Z:\Projects\PS1\PSX-Controller-DB-15-Adapter\Code\Psx_To_DB-15_REMAP_AF/Psx_To_DB-15_REMAP_AF.ino:557
  OA = (OA + 1);
    11c6:	80 91 4a 01 	lds	r24, 0x014A	; 0x80014a <OA>
    11ca:	90 91 4b 01 	lds	r25, 0x014B	; 0x80014b <OA+0x1>
    11ce:	01 96       	adiw	r24, 0x01	; 1
    11d0:	90 93 4b 01 	sts	0x014B, r25	; 0x80014b <OA+0x1>
    11d4:	80 93 4a 01 	sts	0x014A, r24	; 0x80014a <OA>
Z:\Projects\PS1\PSX-Controller-DB-15-Adapter\Code\Psx_To_DB-15_REMAP_AF/Psx_To_DB-15_REMAP_AF.ino:559
}
if (OA > 6){
    11d8:	80 91 4a 01 	lds	r24, 0x014A	; 0x80014a <OA>
    11dc:	90 91 4b 01 	lds	r25, 0x014B	; 0x80014b <OA+0x1>
    11e0:	07 97       	sbiw	r24, 0x07	; 7
    11e2:	24 f0       	brlt	.+8      	; 0x11ec <__stack+0xced>
Z:\Projects\PS1\PSX-Controller-DB-15-Adapter\Code\Psx_To_DB-15_REMAP_AF/Psx_To_DB-15_REMAP_AF.ino:560
  OA = 0;
    11e4:	10 92 4b 01 	sts	0x014B, r1	; 0x80014b <OA+0x1>
    11e8:	10 92 4a 01 	sts	0x014A, r1	; 0x80014a <OA>
Z:\Projects\PS1\PSX-Controller-DB-15-Adapter\Code\Psx_To_DB-15_REMAP_AF/Psx_To_DB-15_REMAP_AF.ino:562
}
if (XC == 1 && (XP == 0 && (NB == 1))){
    11ec:	80 91 2e 01 	lds	r24, 0x012E	; 0x80012e <XC>
    11f0:	90 91 2f 01 	lds	r25, 0x012F	; 0x80012f <XC+0x1>
    11f4:	01 97       	sbiw	r24, 0x01	; 1
    11f6:	91 f4       	brne	.+36     	; 0x121c <__stack+0xd1d>
    11f8:	80 91 2c 01 	lds	r24, 0x012C	; 0x80012c <XP>
    11fc:	90 91 2d 01 	lds	r25, 0x012D	; 0x80012d <XP+0x1>
    1200:	89 2b       	or	r24, r25
    1202:	61 f4       	brne	.+24     	; 0x121c <__stack+0xd1d>
    1204:	21 30       	cpi	r18, 0x01	; 1
    1206:	31 05       	cpc	r19, r1
    1208:	49 f4       	brne	.+18     	; 0x121c <__stack+0xd1d>
Z:\Projects\PS1\PSX-Controller-DB-15-Adapter\Code\Psx_To_DB-15_REMAP_AF/Psx_To_DB-15_REMAP_AF.ino:563
  XA = (XA + 1);
    120a:	80 91 48 01 	lds	r24, 0x0148	; 0x800148 <XA>
    120e:	90 91 49 01 	lds	r25, 0x0149	; 0x800149 <XA+0x1>
    1212:	01 96       	adiw	r24, 0x01	; 1
    1214:	90 93 49 01 	sts	0x0149, r25	; 0x800149 <XA+0x1>
    1218:	80 93 48 01 	sts	0x0148, r24	; 0x800148 <XA>
Z:\Projects\PS1\PSX-Controller-DB-15-Adapter\Code\Psx_To_DB-15_REMAP_AF/Psx_To_DB-15_REMAP_AF.ino:565
}
if (XA > 6){
    121c:	80 91 48 01 	lds	r24, 0x0148	; 0x800148 <XA>
    1220:	90 91 49 01 	lds	r25, 0x0149	; 0x800149 <XA+0x1>
    1224:	07 97       	sbiw	r24, 0x07	; 7
    1226:	24 f0       	brlt	.+8      	; 0x1230 <__stack+0xd31>
Z:\Projects\PS1\PSX-Controller-DB-15-Adapter\Code\Psx_To_DB-15_REMAP_AF/Psx_To_DB-15_REMAP_AF.ino:566
  XA = 0;
    1228:	10 92 49 01 	sts	0x0149, r1	; 0x800149 <XA+0x1>
    122c:	10 92 48 01 	sts	0x0148, r1	; 0x800148 <XA>
Z:\Projects\PS1\PSX-Controller-DB-15-Adapter\Code\Psx_To_DB-15_REMAP_AF/Psx_To_DB-15_REMAP_AF.ino:568
}
if (R1C == 1 && (R1P == 0 && (NB == 1))){
    1230:	80 91 2a 01 	lds	r24, 0x012A	; 0x80012a <R1C>
    1234:	90 91 2b 01 	lds	r25, 0x012B	; 0x80012b <R1C+0x1>
    1238:	01 97       	sbiw	r24, 0x01	; 1
    123a:	91 f4       	brne	.+36     	; 0x1260 <__stack+0xd61>
    123c:	80 91 28 01 	lds	r24, 0x0128	; 0x800128 <R1P>
    1240:	90 91 29 01 	lds	r25, 0x0129	; 0x800129 <R1P+0x1>
    1244:	89 2b       	or	r24, r25
    1246:	61 f4       	brne	.+24     	; 0x1260 <__stack+0xd61>
    1248:	21 30       	cpi	r18, 0x01	; 1
    124a:	31 05       	cpc	r19, r1
    124c:	49 f4       	brne	.+18     	; 0x1260 <__stack+0xd61>
Z:\Projects\PS1\PSX-Controller-DB-15-Adapter\Code\Psx_To_DB-15_REMAP_AF/Psx_To_DB-15_REMAP_AF.ino:569
  R1A = (R1A + 1);
    124e:	80 91 46 01 	lds	r24, 0x0146	; 0x800146 <R1A>
    1252:	90 91 47 01 	lds	r25, 0x0147	; 0x800147 <R1A+0x1>
    1256:	01 96       	adiw	r24, 0x01	; 1
    1258:	90 93 47 01 	sts	0x0147, r25	; 0x800147 <R1A+0x1>
    125c:	80 93 46 01 	sts	0x0146, r24	; 0x800146 <R1A>
Z:\Projects\PS1\PSX-Controller-DB-15-Adapter\Code\Psx_To_DB-15_REMAP_AF/Psx_To_DB-15_REMAP_AF.ino:571
}
if (R1A > 6){
    1260:	80 91 46 01 	lds	r24, 0x0146	; 0x800146 <R1A>
    1264:	90 91 47 01 	lds	r25, 0x0147	; 0x800147 <R1A+0x1>
    1268:	07 97       	sbiw	r24, 0x07	; 7
    126a:	24 f0       	brlt	.+8      	; 0x1274 <__stack+0xd75>
Z:\Projects\PS1\PSX-Controller-DB-15-Adapter\Code\Psx_To_DB-15_REMAP_AF/Psx_To_DB-15_REMAP_AF.ino:572
  R1A = 0;
    126c:	10 92 47 01 	sts	0x0147, r1	; 0x800147 <R1A+0x1>
    1270:	10 92 46 01 	sts	0x0146, r1	; 0x800146 <R1A>
Z:\Projects\PS1\PSX-Controller-DB-15-Adapter\Code\Psx_To_DB-15_REMAP_AF/Psx_To_DB-15_REMAP_AF.ino:574
  }
if (L1C == 1 && (L1P == 0 && (NB == 1))){
    1274:	80 91 26 01 	lds	r24, 0x0126	; 0x800126 <L1C>
    1278:	90 91 27 01 	lds	r25, 0x0127	; 0x800127 <L1C+0x1>
    127c:	01 97       	sbiw	r24, 0x01	; 1
    127e:	91 f4       	brne	.+36     	; 0x12a4 <__stack+0xda5>
    1280:	80 91 24 01 	lds	r24, 0x0124	; 0x800124 <L1P>
    1284:	90 91 25 01 	lds	r25, 0x0125	; 0x800125 <L1P+0x1>
    1288:	89 2b       	or	r24, r25
    128a:	61 f4       	brne	.+24     	; 0x12a4 <__stack+0xda5>
    128c:	21 30       	cpi	r18, 0x01	; 1
    128e:	31 05       	cpc	r19, r1
    1290:	49 f4       	brne	.+18     	; 0x12a4 <__stack+0xda5>
Z:\Projects\PS1\PSX-Controller-DB-15-Adapter\Code\Psx_To_DB-15_REMAP_AF/Psx_To_DB-15_REMAP_AF.ino:575
  L1A = (L1A + 1);
    1292:	80 91 44 01 	lds	r24, 0x0144	; 0x800144 <L1A>
    1296:	90 91 45 01 	lds	r25, 0x0145	; 0x800145 <L1A+0x1>
    129a:	01 96       	adiw	r24, 0x01	; 1
    129c:	90 93 45 01 	sts	0x0145, r25	; 0x800145 <L1A+0x1>
    12a0:	80 93 44 01 	sts	0x0144, r24	; 0x800144 <L1A>
Z:\Projects\PS1\PSX-Controller-DB-15-Adapter\Code\Psx_To_DB-15_REMAP_AF/Psx_To_DB-15_REMAP_AF.ino:577
}
if (L1A > 6){
    12a4:	80 91 44 01 	lds	r24, 0x0144	; 0x800144 <L1A>
    12a8:	90 91 45 01 	lds	r25, 0x0145	; 0x800145 <L1A+0x1>
    12ac:	07 97       	sbiw	r24, 0x07	; 7
    12ae:	24 f0       	brlt	.+8      	; 0x12b8 <__stack+0xdb9>
Z:\Projects\PS1\PSX-Controller-DB-15-Adapter\Code\Psx_To_DB-15_REMAP_AF/Psx_To_DB-15_REMAP_AF.ino:578
  L1A = 0;
    12b0:	10 92 45 01 	sts	0x0145, r1	; 0x800145 <L1A+0x1>
    12b4:	10 92 44 01 	sts	0x0144, r1	; 0x800144 <L1A>
Z:\Projects\PS1\PSX-Controller-DB-15-Adapter\Code\Psx_To_DB-15_REMAP_AF/Psx_To_DB-15_REMAP_AF.ino:580
  }
if (L2C == 1 && (L2P == 0 && (NB == 1))){
    12b8:	80 91 22 01 	lds	r24, 0x0122	; 0x800122 <L2C>
    12bc:	90 91 23 01 	lds	r25, 0x0123	; 0x800123 <L2C+0x1>
    12c0:	01 97       	sbiw	r24, 0x01	; 1
    12c2:	91 f4       	brne	.+36     	; 0x12e8 <__stack+0xde9>
    12c4:	80 91 20 01 	lds	r24, 0x0120	; 0x800120 <L2P>
    12c8:	90 91 21 01 	lds	r25, 0x0121	; 0x800121 <L2P+0x1>
    12cc:	89 2b       	or	r24, r25
    12ce:	61 f4       	brne	.+24     	; 0x12e8 <__stack+0xde9>
    12d0:	21 30       	cpi	r18, 0x01	; 1
    12d2:	31 05       	cpc	r19, r1
    12d4:	49 f4       	brne	.+18     	; 0x12e8 <__stack+0xde9>
Z:\Projects\PS1\PSX-Controller-DB-15-Adapter\Code\Psx_To_DB-15_REMAP_AF/Psx_To_DB-15_REMAP_AF.ino:581
  L2A = (L2A + 1);
    12d6:	80 91 42 01 	lds	r24, 0x0142	; 0x800142 <L2A>
    12da:	90 91 43 01 	lds	r25, 0x0143	; 0x800143 <L2A+0x1>
    12de:	01 96       	adiw	r24, 0x01	; 1
    12e0:	90 93 43 01 	sts	0x0143, r25	; 0x800143 <L2A+0x1>
    12e4:	80 93 42 01 	sts	0x0142, r24	; 0x800142 <L2A>
Z:\Projects\PS1\PSX-Controller-DB-15-Adapter\Code\Psx_To_DB-15_REMAP_AF/Psx_To_DB-15_REMAP_AF.ino:583
}
if (L2A > 6){
    12e8:	80 91 42 01 	lds	r24, 0x0142	; 0x800142 <L2A>
    12ec:	90 91 43 01 	lds	r25, 0x0143	; 0x800143 <L2A+0x1>
    12f0:	07 97       	sbiw	r24, 0x07	; 7
    12f2:	24 f0       	brlt	.+8      	; 0x12fc <__stack+0xdfd>
Z:\Projects\PS1\PSX-Controller-DB-15-Adapter\Code\Psx_To_DB-15_REMAP_AF/Psx_To_DB-15_REMAP_AF.ino:584
  L2A = 0;
    12f4:	10 92 43 01 	sts	0x0143, r1	; 0x800143 <L2A+0x1>
    12f8:	10 92 42 01 	sts	0x0142, r1	; 0x800142 <L2A>
Z:\Projects\PS1\PSX-Controller-DB-15-Adapter\Code\Psx_To_DB-15_REMAP_AF/Psx_To_DB-15_REMAP_AF.ino:586
  }
      if (NB == 1){
    12fc:	21 30       	cpi	r18, 0x01	; 1
    12fe:	31 05       	cpc	r19, r1
    1300:	21 f4       	brne	.+8      	; 0x130a <__stack+0xe0b>
Z:\Projects\PS1\PSX-Controller-DB-15-Adapter\Code\Psx_To_DB-15_REMAP_AF/Psx_To_DB-15_REMAP_AF.ino:587
  outputd = 0;
    1302:	10 92 73 01 	sts	0x0173, r1	; 0x800173 <outputd+0x1>
    1306:	10 92 72 01 	sts	0x0172, r1	; 0x800172 <outputd>
Z:\Projects\PS1\PSX-Controller-DB-15-Adapter\Code\Psx_To_DB-15_REMAP_AF/Psx_To_DB-15_REMAP_AF.ino:589
  }
DDRD = outputd;
    130a:	80 91 72 01 	lds	r24, 0x0172	; 0x800172 <outputd>
    130e:	8a b9       	out	0x0a, r24	; 10
Z:\Projects\PS1\PSX-Controller-DB-15-Adapter\Code\Psx_To_DB-15_REMAP_AF/Psx_To_DB-15_REMAP_AF.ino:590
if (ST == 1 && (STP == 0)){
    1310:	80 91 60 01 	lds	r24, 0x0160	; 0x800160 <ST>
    1314:	90 91 61 01 	lds	r25, 0x0161	; 0x800161 <ST+0x1>
    1318:	01 97       	sbiw	r24, 0x01	; 1
    131a:	09 f0       	breq	.+2      	; 0x131e <__stack+0xe1f>
    131c:	db cc       	rjmp	.-1610   	; 0xcd4 <__stack+0x7d5>
    131e:	80 91 1e 01 	lds	r24, 0x011E	; 0x80011e <STP>
    1322:	90 91 1f 01 	lds	r25, 0x011F	; 0x80011f <STP+0x1>
    1326:	89 2b       	or	r24, r25
    1328:	09 f0       	breq	.+2      	; 0x132c <__stack+0xe2d>
    132a:	d4 cc       	rjmp	.-1624   	; 0xcd4 <__stack+0x7d5>
Z:\Projects\PS1\PSX-Controller-DB-15-Adapter\Code\Psx_To_DB-15_REMAP_AF/Psx_To_DB-15_REMAP_AF.ino:591
    autofire = 0;
    132c:	10 92 77 01 	sts	0x0177, r1	; 0x800177 <autofire+0x1>
    1330:	10 92 76 01 	sts	0x0176, r1	; 0x800176 <autofire>
Z:\Projects\PS1\PSX-Controller-DB-15-Adapter\Code\Psx_To_DB-15_REMAP_AF/Psx_To_DB-15_REMAP_AF.ino:592
    EEPROM.write(7,TRA);
    1334:	60 91 50 01 	lds	r22, 0x0150	; 0x800150 <TRA>
    1338:	87 e0       	ldi	r24, 0x07	; 7
    133a:	90 e0       	ldi	r25, 0x00	; 0
    133c:	24 d8       	rcall	.-4024   	; 0x386 <EEPROMClass::write(int, unsigned char) [clone .isra.1]>
Z:\Projects\PS1\PSX-Controller-DB-15-Adapter\Code\Psx_To_DB-15_REMAP_AF/Psx_To_DB-15_REMAP_AF.ino:593
    EEPROM.write(8,SQA);
    133e:	60 91 4e 01 	lds	r22, 0x014E	; 0x80014e <SQA>
    1342:	88 e0       	ldi	r24, 0x08	; 8
    1344:	90 e0       	ldi	r25, 0x00	; 0
    1346:	1f d8       	rcall	.-4034   	; 0x386 <EEPROMClass::write(int, unsigned char) [clone .isra.1]>
Z:\Projects\PS1\PSX-Controller-DB-15-Adapter\Code\Psx_To_DB-15_REMAP_AF/Psx_To_DB-15_REMAP_AF.ino:594
    EEPROM.write(9,R2A);
    1348:	60 91 4c 01 	lds	r22, 0x014C	; 0x80014c <R2A>
    134c:	89 e0       	ldi	r24, 0x09	; 9
    134e:	90 e0       	ldi	r25, 0x00	; 0
    1350:	1a d8       	rcall	.-4044   	; 0x386 <EEPROMClass::write(int, unsigned char) [clone .isra.1]>
Z:\Projects\PS1\PSX-Controller-DB-15-Adapter\Code\Psx_To_DB-15_REMAP_AF/Psx_To_DB-15_REMAP_AF.ino:595
    EEPROM.write(10,OA);
    1352:	60 91 4a 01 	lds	r22, 0x014A	; 0x80014a <OA>
    1356:	8a e0       	ldi	r24, 0x0A	; 10
    1358:	90 e0       	ldi	r25, 0x00	; 0
    135a:	15 d8       	rcall	.-4054   	; 0x386 <EEPROMClass::write(int, unsigned char) [clone .isra.1]>
Z:\Projects\PS1\PSX-Controller-DB-15-Adapter\Code\Psx_To_DB-15_REMAP_AF/Psx_To_DB-15_REMAP_AF.ino:596
    EEPROM.write(11,XA);
    135c:	60 91 48 01 	lds	r22, 0x0148	; 0x800148 <XA>
    1360:	8b e0       	ldi	r24, 0x0B	; 11
    1362:	90 e0       	ldi	r25, 0x00	; 0
    1364:	10 d8       	rcall	.-4064   	; 0x386 <EEPROMClass::write(int, unsigned char) [clone .isra.1]>
Z:\Projects\PS1\PSX-Controller-DB-15-Adapter\Code\Psx_To_DB-15_REMAP_AF/Psx_To_DB-15_REMAP_AF.ino:597
    EEPROM.write(12,R1A);
    1366:	60 91 46 01 	lds	r22, 0x0146	; 0x800146 <R1A>
    136a:	8c e0       	ldi	r24, 0x0C	; 12
    136c:	90 e0       	ldi	r25, 0x00	; 0
    136e:	0b d8       	rcall	.-4074   	; 0x386 <EEPROMClass::write(int, unsigned char) [clone .isra.1]>
Z:\Projects\PS1\PSX-Controller-DB-15-Adapter\Code\Psx_To_DB-15_REMAP_AF/Psx_To_DB-15_REMAP_AF.ino:598
    EEPROM.write(15,L1A);
    1370:	60 91 44 01 	lds	r22, 0x0144	; 0x800144 <L1A>
    1374:	8f e0       	ldi	r24, 0x0F	; 15
    1376:	90 e0       	ldi	r25, 0x00	; 0
    1378:	06 d8       	rcall	.-4084   	; 0x386 <EEPROMClass::write(int, unsigned char) [clone .isra.1]>
Z:\Projects\PS1\PSX-Controller-DB-15-Adapter\Code\Psx_To_DB-15_REMAP_AF/Psx_To_DB-15_REMAP_AF.ino:599
    EEPROM.write(16,L2A);
    137a:	60 91 42 01 	lds	r22, 0x0142	; 0x800142 <L2A>
    137e:	80 e1       	ldi	r24, 0x10	; 16
    1380:	90 e0       	ldi	r25, 0x00	; 0
    1382:	6e ce       	rjmp	.-804    	; 0x1060 <__stack+0xb61>
setautofire():
Z:\Projects\PS1\PSX-Controller-DB-15-Adapter\Code\Psx_To_DB-15_REMAP_AF/Psx_To_DB-15_REMAP_AF.ino:175
  DDRD = outputd;
   delayMicroseconds(13700);
}

void setautofire(){
autofiretimer1 = (autofiretimer1 + 1);
    1384:	e0 90 5c 01 	lds	r14, 0x015C	; 0x80015c <autofiretimer1>
    1388:	f0 90 5d 01 	lds	r15, 0x015D	; 0x80015d <autofiretimer1+0x1>
    138c:	3f ef       	ldi	r19, 0xFF	; 255
    138e:	e3 1a       	sub	r14, r19
    1390:	f3 0a       	sbc	r15, r19
    1392:	f0 92 5d 01 	sts	0x015D, r15	; 0x80015d <autofiretimer1+0x1>
    1396:	e0 92 5c 01 	sts	0x015C, r14	; 0x80015c <autofiretimer1>
Z:\Projects\PS1\PSX-Controller-DB-15-Adapter\Code\Psx_To_DB-15_REMAP_AF/Psx_To_DB-15_REMAP_AF.ino:176
autofiretimer2 = (autofiretimer2 + 1);
    139a:	a0 91 5a 01 	lds	r26, 0x015A	; 0x80015a <autofiretimer2>
    139e:	b0 91 5b 01 	lds	r27, 0x015B	; 0x80015b <autofiretimer2+0x1>
    13a2:	11 96       	adiw	r26, 0x01	; 1
    13a4:	b0 93 5b 01 	sts	0x015B, r27	; 0x80015b <autofiretimer2+0x1>
    13a8:	a0 93 5a 01 	sts	0x015A, r26	; 0x80015a <autofiretimer2>
Z:\Projects\PS1\PSX-Controller-DB-15-Adapter\Code\Psx_To_DB-15_REMAP_AF/Psx_To_DB-15_REMAP_AF.ino:177
autofiretimer3 = (autofiretimer3 + 1);
    13ac:	e0 91 58 01 	lds	r30, 0x0158	; 0x800158 <autofiretimer3>
    13b0:	f0 91 59 01 	lds	r31, 0x0159	; 0x800159 <autofiretimer3+0x1>
    13b4:	31 96       	adiw	r30, 0x01	; 1
    13b6:	f0 93 59 01 	sts	0x0159, r31	; 0x800159 <autofiretimer3+0x1>
    13ba:	e0 93 58 01 	sts	0x0158, r30	; 0x800158 <autofiretimer3>
Z:\Projects\PS1\PSX-Controller-DB-15-Adapter\Code\Psx_To_DB-15_REMAP_AF/Psx_To_DB-15_REMAP_AF.ino:178
autofiretimer4 = (autofiretimer4 + 1);
    13be:	60 91 56 01 	lds	r22, 0x0156	; 0x800156 <autofiretimer4>
    13c2:	70 91 57 01 	lds	r23, 0x0157	; 0x800157 <autofiretimer4+0x1>
    13c6:	6f 5f       	subi	r22, 0xFF	; 255
    13c8:	7f 4f       	sbci	r23, 0xFF	; 255
    13ca:	70 93 57 01 	sts	0x0157, r23	; 0x800157 <autofiretimer4+0x1>
    13ce:	60 93 56 01 	sts	0x0156, r22	; 0x800156 <autofiretimer4>
Z:\Projects\PS1\PSX-Controller-DB-15-Adapter\Code\Psx_To_DB-15_REMAP_AF/Psx_To_DB-15_REMAP_AF.ino:179
autofiretimer5 = (autofiretimer5 + 1);
    13d2:	40 91 54 01 	lds	r20, 0x0154	; 0x800154 <autofiretimer5>
    13d6:	50 91 55 01 	lds	r21, 0x0155	; 0x800155 <autofiretimer5+0x1>
    13da:	4f 5f       	subi	r20, 0xFF	; 255
    13dc:	5f 4f       	sbci	r21, 0xFF	; 255
    13de:	50 93 55 01 	sts	0x0155, r21	; 0x800155 <autofiretimer5+0x1>
    13e2:	40 93 54 01 	sts	0x0154, r20	; 0x800154 <autofiretimer5>
Z:\Projects\PS1\PSX-Controller-DB-15-Adapter\Code\Psx_To_DB-15_REMAP_AF/Psx_To_DB-15_REMAP_AF.ino:180
autofiretimer6 = (autofiretimer6 + 1);
    13e6:	20 91 52 01 	lds	r18, 0x0152	; 0x800152 <autofiretimer6>
    13ea:	30 91 53 01 	lds	r19, 0x0153	; 0x800153 <autofiretimer6+0x1>
    13ee:	89 01       	movw	r16, r18
    13f0:	0f 5f       	subi	r16, 0xFF	; 255
    13f2:	1f 4f       	sbci	r17, 0xFF	; 255
    13f4:	10 93 53 01 	sts	0x0153, r17	; 0x800153 <autofiretimer6+0x1>
    13f8:	00 93 52 01 	sts	0x0152, r16	; 0x800152 <autofiretimer6>
Z:\Projects\PS1\PSX-Controller-DB-15-Adapter\Code\Psx_To_DB-15_REMAP_AF/Psx_To_DB-15_REMAP_AF.ino:182

if (autofiretimer1 > 1){
    13fc:	22 e0       	ldi	r18, 0x02	; 2
    13fe:	e2 16       	cp	r14, r18
    1400:	f1 04       	cpc	r15, r1
    1402:	24 f0       	brlt	.+8      	; 0x140c <__stack+0xf0d>
Z:\Projects\PS1\PSX-Controller-DB-15-Adapter\Code\Psx_To_DB-15_REMAP_AF/Psx_To_DB-15_REMAP_AF.ino:183
  autofiretimer1 = 0; 
    1404:	10 92 5d 01 	sts	0x015D, r1	; 0x80015d <autofiretimer1+0x1>
    1408:	10 92 5c 01 	sts	0x015C, r1	; 0x80015c <autofiretimer1>
Z:\Projects\PS1\PSX-Controller-DB-15-Adapter\Code\Psx_To_DB-15_REMAP_AF/Psx_To_DB-15_REMAP_AF.ino:185
}
if (autofiretimer2 > 2){
    140c:	13 97       	sbiw	r26, 0x03	; 3
    140e:	24 f0       	brlt	.+8      	; 0x1418 <__stack+0xf19>
Z:\Projects\PS1\PSX-Controller-DB-15-Adapter\Code\Psx_To_DB-15_REMAP_AF/Psx_To_DB-15_REMAP_AF.ino:186
  autofiretimer2 = 0; 
    1410:	10 92 5b 01 	sts	0x015B, r1	; 0x80015b <autofiretimer2+0x1>
    1414:	10 92 5a 01 	sts	0x015A, r1	; 0x80015a <autofiretimer2>
Z:\Projects\PS1\PSX-Controller-DB-15-Adapter\Code\Psx_To_DB-15_REMAP_AF/Psx_To_DB-15_REMAP_AF.ino:188
}
if (autofiretimer3 > 3){
    1418:	34 97       	sbiw	r30, 0x04	; 4
    141a:	24 f0       	brlt	.+8      	; 0x1424 <__stack+0xf25>
Z:\Projects\PS1\PSX-Controller-DB-15-Adapter\Code\Psx_To_DB-15_REMAP_AF/Psx_To_DB-15_REMAP_AF.ino:189
  autofiretimer3 = 0; 
    141c:	10 92 59 01 	sts	0x0159, r1	; 0x800159 <autofiretimer3+0x1>
    1420:	10 92 58 01 	sts	0x0158, r1	; 0x800158 <autofiretimer3>
Z:\Projects\PS1\PSX-Controller-DB-15-Adapter\Code\Psx_To_DB-15_REMAP_AF/Psx_To_DB-15_REMAP_AF.ino:191
}
if (autofiretimer4 > 5){
    1424:	66 30       	cpi	r22, 0x06	; 6
    1426:	71 05       	cpc	r23, r1
    1428:	24 f0       	brlt	.+8      	; 0x1432 <__stack+0xf33>
Z:\Projects\PS1\PSX-Controller-DB-15-Adapter\Code\Psx_To_DB-15_REMAP_AF/Psx_To_DB-15_REMAP_AF.ino:192
  autofiretimer4 = 0; 
    142a:	10 92 57 01 	sts	0x0157, r1	; 0x800157 <autofiretimer4+0x1>
    142e:	10 92 56 01 	sts	0x0156, r1	; 0x800156 <autofiretimer4>
Z:\Projects\PS1\PSX-Controller-DB-15-Adapter\Code\Psx_To_DB-15_REMAP_AF/Psx_To_DB-15_REMAP_AF.ino:194
}
if (autofiretimer5 > 7){
    1432:	48 30       	cpi	r20, 0x08	; 8
    1434:	51 05       	cpc	r21, r1
    1436:	24 f0       	brlt	.+8      	; 0x1440 <__stack+0xf41>
Z:\Projects\PS1\PSX-Controller-DB-15-Adapter\Code\Psx_To_DB-15_REMAP_AF/Psx_To_DB-15_REMAP_AF.ino:195
  autofiretimer5 = 0; 
    1438:	10 92 55 01 	sts	0x0155, r1	; 0x800155 <autofiretimer5+0x1>
    143c:	10 92 54 01 	sts	0x0154, r1	; 0x800154 <autofiretimer5>
Z:\Projects\PS1\PSX-Controller-DB-15-Adapter\Code\Psx_To_DB-15_REMAP_AF/Psx_To_DB-15_REMAP_AF.ino:197
}
if (autofiretimer6 > 9){
    1440:	0a 30       	cpi	r16, 0x0A	; 10
    1442:	11 05       	cpc	r17, r1
    1444:	24 f0       	brlt	.+8      	; 0x144e <__stack+0xf4f>
Z:\Projects\PS1\PSX-Controller-DB-15-Adapter\Code\Psx_To_DB-15_REMAP_AF/Psx_To_DB-15_REMAP_AF.ino:198
  autofiretimer6 = 0; 
    1446:	10 92 53 01 	sts	0x0153, r1	; 0x800153 <autofiretimer6+0x1>
    144a:	10 92 52 01 	sts	0x0152, r1	; 0x800152 <autofiretimer6>
Z:\Projects\PS1\PSX-Controller-DB-15-Adapter\Code\Psx_To_DB-15_REMAP_AF/Psx_To_DB-15_REMAP_AF.ino:201
}

if ((TRA == 1 && autofiretimer1 < 1) || (TRA == 2 && autofiretimer2 < 2) || (TRA == 3 && autofiretimer3 < 2) || (TRA == 4 && autofiretimer4 < 3) || (TRA == 5 && autofiretimer5 < 4) || (TRA == 6 && autofiretimer6 < 5)){
    144e:	20 91 50 01 	lds	r18, 0x0150	; 0x800150 <TRA>
    1452:	30 91 51 01 	lds	r19, 0x0151	; 0x800151 <TRA+0x1>
    1456:	21 30       	cpi	r18, 0x01	; 1
    1458:	31 05       	cpc	r19, r1
    145a:	61 f4       	brne	.+24     	; 0x1474 <__stack+0xf75>
    145c:	20 91 5c 01 	lds	r18, 0x015C	; 0x80015c <autofiretimer1>
    1460:	30 91 5d 01 	lds	r19, 0x015D	; 0x80015d <autofiretimer1+0x1>
    1464:	12 16       	cp	r1, r18
    1466:	13 06       	cpc	r1, r19
    1468:	7c f0       	brlt	.+30     	; 0x1488 <__stack+0xf89>
Z:\Projects\PS1\PSX-Controller-DB-15-Adapter\Code\Psx_To_DB-15_REMAP_AF/Psx_To_DB-15_REMAP_AF.ino:202
    TR = 0;     
    146a:	10 92 6f 01 	sts	0x016F, r1	; 0x80016f <TR+0x1>
    146e:	10 92 6e 01 	sts	0x016E, r1	; 0x80016e <TR>
    1472:	0a c0       	rjmp	.+20     	; 0x1488 <__stack+0xf89>
Z:\Projects\PS1\PSX-Controller-DB-15-Adapter\Code\Psx_To_DB-15_REMAP_AF/Psx_To_DB-15_REMAP_AF.ino:201
}
if (autofiretimer6 > 9){
  autofiretimer6 = 0; 
}

if ((TRA == 1 && autofiretimer1 < 1) || (TRA == 2 && autofiretimer2 < 2) || (TRA == 3 && autofiretimer3 < 2) || (TRA == 4 && autofiretimer4 < 3) || (TRA == 5 && autofiretimer5 < 4) || (TRA == 6 && autofiretimer6 < 5)){
    1474:	22 30       	cpi	r18, 0x02	; 2
    1476:	31 05       	cpc	r19, r1
    1478:	d1 f4       	brne	.+52     	; 0x14ae <__stack+0xfaf>
    147a:	20 91 5a 01 	lds	r18, 0x015A	; 0x80015a <autofiretimer2>
    147e:	30 91 5b 01 	lds	r19, 0x015B	; 0x80015b <autofiretimer2+0x1>
    1482:	22 30       	cpi	r18, 0x02	; 2
    1484:	31 05       	cpc	r19, r1
    1486:	8c f3       	brlt	.-30     	; 0x146a <__stack+0xf6b>
Z:\Projects\PS1\PSX-Controller-DB-15-Adapter\Code\Psx_To_DB-15_REMAP_AF/Psx_To_DB-15_REMAP_AF.ino:204
    TR = 0;     
  }
if ((SQA == 1 && autofiretimer1 < 1) || (SQA == 2 && autofiretimer2 < 2) || (SQA == 3 && autofiretimer3 < 2) || (SQA == 4 && autofiretimer4 < 3) || (SQA == 5 && autofiretimer5 < 4) || (SQA == 6 && autofiretimer6 < 5)){
    1488:	20 91 4e 01 	lds	r18, 0x014E	; 0x80014e <SQA>
    148c:	30 91 4f 01 	lds	r19, 0x014F	; 0x80014f <SQA+0x1>
    1490:	21 30       	cpi	r18, 0x01	; 1
    1492:	31 05       	cpc	r19, r1
    1494:	a9 f5       	brne	.+106    	; 0x1500 <__stack+0x1001>
    1496:	20 91 5c 01 	lds	r18, 0x015C	; 0x80015c <autofiretimer1>
    149a:	30 91 5d 01 	lds	r19, 0x015D	; 0x80015d <autofiretimer1+0x1>
    149e:	12 16       	cp	r1, r18
    14a0:	13 06       	cpc	r1, r19
    14a2:	c4 f1       	brlt	.+112    	; 0x1514 <__stack+0x1015>
Z:\Projects\PS1\PSX-Controller-DB-15-Adapter\Code\Psx_To_DB-15_REMAP_AF/Psx_To_DB-15_REMAP_AF.ino:205
    SQ = 0;     
    14a4:	10 92 71 01 	sts	0x0171, r1	; 0x800171 <SQ+0x1>
    14a8:	10 92 70 01 	sts	0x0170, r1	; 0x800170 <SQ>
    14ac:	33 c0       	rjmp	.+102    	; 0x1514 <__stack+0x1015>
Z:\Projects\PS1\PSX-Controller-DB-15-Adapter\Code\Psx_To_DB-15_REMAP_AF/Psx_To_DB-15_REMAP_AF.ino:201
}
if (autofiretimer6 > 9){
  autofiretimer6 = 0; 
}

if ((TRA == 1 && autofiretimer1 < 1) || (TRA == 2 && autofiretimer2 < 2) || (TRA == 3 && autofiretimer3 < 2) || (TRA == 4 && autofiretimer4 < 3) || (TRA == 5 && autofiretimer5 < 4) || (TRA == 6 && autofiretimer6 < 5)){
    14ae:	23 30       	cpi	r18, 0x03	; 3
    14b0:	31 05       	cpc	r19, r1
    14b2:	29 f4       	brne	.+10     	; 0x14be <__stack+0xfbf>
    14b4:	20 91 58 01 	lds	r18, 0x0158	; 0x800158 <autofiretimer3>
    14b8:	30 91 59 01 	lds	r19, 0x0159	; 0x800159 <autofiretimer3+0x1>
    14bc:	e2 cf       	rjmp	.-60     	; 0x1482 <__stack+0xf83>
    14be:	24 30       	cpi	r18, 0x04	; 4
    14c0:	31 05       	cpc	r19, r1
    14c2:	41 f4       	brne	.+16     	; 0x14d4 <__stack+0xfd5>
    14c4:	20 91 56 01 	lds	r18, 0x0156	; 0x800156 <autofiretimer4>
    14c8:	30 91 57 01 	lds	r19, 0x0157	; 0x800157 <autofiretimer4+0x1>
    14cc:	23 30       	cpi	r18, 0x03	; 3
    14ce:	31 05       	cpc	r19, r1
    14d0:	64 f2       	brlt	.-104    	; 0x146a <__stack+0xf6b>
    14d2:	da cf       	rjmp	.-76     	; 0x1488 <__stack+0xf89>
    14d4:	25 30       	cpi	r18, 0x05	; 5
    14d6:	31 05       	cpc	r19, r1
    14d8:	41 f4       	brne	.+16     	; 0x14ea <__stack+0xfeb>
    14da:	20 91 54 01 	lds	r18, 0x0154	; 0x800154 <autofiretimer5>
    14de:	30 91 55 01 	lds	r19, 0x0155	; 0x800155 <autofiretimer5+0x1>
    14e2:	24 30       	cpi	r18, 0x04	; 4
    14e4:	31 05       	cpc	r19, r1
    14e6:	0c f2       	brlt	.-126    	; 0x146a <__stack+0xf6b>
    14e8:	cf cf       	rjmp	.-98     	; 0x1488 <__stack+0xf89>
    14ea:	26 30       	cpi	r18, 0x06	; 6
    14ec:	31 05       	cpc	r19, r1
    14ee:	61 f6       	brne	.-104    	; 0x1488 <__stack+0xf89>
    14f0:	20 91 52 01 	lds	r18, 0x0152	; 0x800152 <autofiretimer6>
    14f4:	30 91 53 01 	lds	r19, 0x0153	; 0x800153 <autofiretimer6+0x1>
    14f8:	25 30       	cpi	r18, 0x05	; 5
    14fa:	31 05       	cpc	r19, r1
    14fc:	2c f6       	brge	.-118    	; 0x1488 <__stack+0xf89>
    14fe:	b5 cf       	rjmp	.-150    	; 0x146a <__stack+0xf6b>
Z:\Projects\PS1\PSX-Controller-DB-15-Adapter\Code\Psx_To_DB-15_REMAP_AF/Psx_To_DB-15_REMAP_AF.ino:204
    TR = 0;     
  }
if ((SQA == 1 && autofiretimer1 < 1) || (SQA == 2 && autofiretimer2 < 2) || (SQA == 3 && autofiretimer3 < 2) || (SQA == 4 && autofiretimer4 < 3) || (SQA == 5 && autofiretimer5 < 4) || (SQA == 6 && autofiretimer6 < 5)){
    1500:	22 30       	cpi	r18, 0x02	; 2
    1502:	31 05       	cpc	r19, r1
    1504:	d1 f4       	brne	.+52     	; 0x153a <__stack+0x103b>
    1506:	20 91 5a 01 	lds	r18, 0x015A	; 0x80015a <autofiretimer2>
    150a:	30 91 5b 01 	lds	r19, 0x015B	; 0x80015b <autofiretimer2+0x1>
    150e:	22 30       	cpi	r18, 0x02	; 2
    1510:	31 05       	cpc	r19, r1
    1512:	44 f2       	brlt	.-112    	; 0x14a4 <__stack+0xfa5>
Z:\Projects\PS1\PSX-Controller-DB-15-Adapter\Code\Psx_To_DB-15_REMAP_AF/Psx_To_DB-15_REMAP_AF.ino:207
    SQ = 0;     
  }
if ((R2A == 1 && autofiretimer1 < 1) || (R2A == 2 && autofiretimer2 < 2) || (R2A == 3 && autofiretimer3 < 2) || (R2A == 4 && autofiretimer4 < 3) || (R2A == 5 && autofiretimer5 < 4) || (R2A == 6 && autofiretimer6 < 5)){
    1514:	20 91 4c 01 	lds	r18, 0x014C	; 0x80014c <R2A>
    1518:	30 91 4d 01 	lds	r19, 0x014D	; 0x80014d <R2A+0x1>
    151c:	21 30       	cpi	r18, 0x01	; 1
    151e:	31 05       	cpc	r19, r1
    1520:	b9 f5       	brne	.+110    	; 0x1590 <__stack+0x1091>
    1522:	20 91 5c 01 	lds	r18, 0x015C	; 0x80015c <autofiretimer1>
    1526:	30 91 5d 01 	lds	r19, 0x015D	; 0x80015d <autofiretimer1+0x1>
    152a:	12 16       	cp	r1, r18
    152c:	13 06       	cpc	r1, r19
    152e:	d4 f1       	brlt	.+116    	; 0x15a4 <__stack+0x10a5>
Z:\Projects\PS1\PSX-Controller-DB-15-Adapter\Code\Psx_To_DB-15_REMAP_AF/Psx_To_DB-15_REMAP_AF.ino:208
    R2 = 0;     
    1530:	10 92 67 01 	sts	0x0167, r1	; 0x800167 <R2+0x1>
    1534:	10 92 66 01 	sts	0x0166, r1	; 0x800166 <R2>
    1538:	35 c0       	rjmp	.+106    	; 0x15a4 <__stack+0x10a5>
Z:\Projects\PS1\PSX-Controller-DB-15-Adapter\Code\Psx_To_DB-15_REMAP_AF/Psx_To_DB-15_REMAP_AF.ino:204
}

if ((TRA == 1 && autofiretimer1 < 1) || (TRA == 2 && autofiretimer2 < 2) || (TRA == 3 && autofiretimer3 < 2) || (TRA == 4 && autofiretimer4 < 3) || (TRA == 5 && autofiretimer5 < 4) || (TRA == 6 && autofiretimer6 < 5)){
    TR = 0;     
  }
if ((SQA == 1 && autofiretimer1 < 1) || (SQA == 2 && autofiretimer2 < 2) || (SQA == 3 && autofiretimer3 < 2) || (SQA == 4 && autofiretimer4 < 3) || (SQA == 5 && autofiretimer5 < 4) || (SQA == 6 && autofiretimer6 < 5)){
    153a:	23 30       	cpi	r18, 0x03	; 3
    153c:	31 05       	cpc	r19, r1
    153e:	29 f4       	brne	.+10     	; 0x154a <__stack+0x104b>
    1540:	20 91 58 01 	lds	r18, 0x0158	; 0x800158 <autofiretimer3>
    1544:	30 91 59 01 	lds	r19, 0x0159	; 0x800159 <autofiretimer3+0x1>
    1548:	e2 cf       	rjmp	.-60     	; 0x150e <__stack+0x100f>
    154a:	24 30       	cpi	r18, 0x04	; 4
    154c:	31 05       	cpc	r19, r1
    154e:	49 f4       	brne	.+18     	; 0x1562 <__stack+0x1063>
    1550:	20 91 56 01 	lds	r18, 0x0156	; 0x800156 <autofiretimer4>
    1554:	30 91 57 01 	lds	r19, 0x0157	; 0x800157 <autofiretimer4+0x1>
    1558:	23 30       	cpi	r18, 0x03	; 3
    155a:	31 05       	cpc	r19, r1
    155c:	0c f4       	brge	.+2      	; 0x1560 <__stack+0x1061>
    155e:	a2 cf       	rjmp	.-188    	; 0x14a4 <__stack+0xfa5>
    1560:	d9 cf       	rjmp	.-78     	; 0x1514 <__stack+0x1015>
    1562:	25 30       	cpi	r18, 0x05	; 5
    1564:	31 05       	cpc	r19, r1
    1566:	49 f4       	brne	.+18     	; 0x157a <__stack+0x107b>
    1568:	20 91 54 01 	lds	r18, 0x0154	; 0x800154 <autofiretimer5>
    156c:	30 91 55 01 	lds	r19, 0x0155	; 0x800155 <autofiretimer5+0x1>
    1570:	24 30       	cpi	r18, 0x04	; 4
    1572:	31 05       	cpc	r19, r1
    1574:	0c f4       	brge	.+2      	; 0x1578 <__stack+0x1079>
    1576:	96 cf       	rjmp	.-212    	; 0x14a4 <__stack+0xfa5>
    1578:	cd cf       	rjmp	.-102    	; 0x1514 <__stack+0x1015>
    157a:	26 30       	cpi	r18, 0x06	; 6
    157c:	31 05       	cpc	r19, r1
    157e:	51 f6       	brne	.-108    	; 0x1514 <__stack+0x1015>
    1580:	20 91 52 01 	lds	r18, 0x0152	; 0x800152 <autofiretimer6>
    1584:	30 91 53 01 	lds	r19, 0x0153	; 0x800153 <autofiretimer6+0x1>
    1588:	25 30       	cpi	r18, 0x05	; 5
    158a:	31 05       	cpc	r19, r1
    158c:	1c f6       	brge	.-122    	; 0x1514 <__stack+0x1015>
    158e:	8a cf       	rjmp	.-236    	; 0x14a4 <__stack+0xfa5>
Z:\Projects\PS1\PSX-Controller-DB-15-Adapter\Code\Psx_To_DB-15_REMAP_AF/Psx_To_DB-15_REMAP_AF.ino:207
    SQ = 0;     
  }
if ((R2A == 1 && autofiretimer1 < 1) || (R2A == 2 && autofiretimer2 < 2) || (R2A == 3 && autofiretimer3 < 2) || (R2A == 4 && autofiretimer4 < 3) || (R2A == 5 && autofiretimer5 < 4) || (R2A == 6 && autofiretimer6 < 5)){
    1590:	22 30       	cpi	r18, 0x02	; 2
    1592:	31 05       	cpc	r19, r1
    1594:	d1 f4       	brne	.+52     	; 0x15ca <__stack+0x10cb>
    1596:	20 91 5a 01 	lds	r18, 0x015A	; 0x80015a <autofiretimer2>
    159a:	30 91 5b 01 	lds	r19, 0x015B	; 0x80015b <autofiretimer2+0x1>
    159e:	22 30       	cpi	r18, 0x02	; 2
    15a0:	31 05       	cpc	r19, r1
    15a2:	34 f2       	brlt	.-116    	; 0x1530 <__stack+0x1031>
Z:\Projects\PS1\PSX-Controller-DB-15-Adapter\Code\Psx_To_DB-15_REMAP_AF/Psx_To_DB-15_REMAP_AF.ino:210
    R2 = 0;     
  }  
if ((OA == 1 && autofiretimer1 < 1) || (OA == 2 && autofiretimer2 < 2) || (OA == 3 && autofiretimer3 < 2) || (OA == 4 && autofiretimer4 < 3) || (OA == 5 && autofiretimer5 < 4) || (OA == 6 && autofiretimer6 < 5)){
    15a4:	20 91 4a 01 	lds	r18, 0x014A	; 0x80014a <OA>
    15a8:	30 91 4b 01 	lds	r19, 0x014B	; 0x80014b <OA+0x1>
    15ac:	21 30       	cpi	r18, 0x01	; 1
    15ae:	31 05       	cpc	r19, r1
    15b0:	b9 f5       	brne	.+110    	; 0x1620 <__stack+0x1121>
    15b2:	20 91 5c 01 	lds	r18, 0x015C	; 0x80015c <autofiretimer1>
    15b6:	30 91 5d 01 	lds	r19, 0x015D	; 0x80015d <autofiretimer1+0x1>
    15ba:	12 16       	cp	r1, r18
    15bc:	13 06       	cpc	r1, r19
    15be:	d4 f1       	brlt	.+116    	; 0x1634 <__stack+0x1135>
Z:\Projects\PS1\PSX-Controller-DB-15-Adapter\Code\Psx_To_DB-15_REMAP_AF/Psx_To_DB-15_REMAP_AF.ino:211
    O = 0;     
    15c0:	10 92 6b 01 	sts	0x016B, r1	; 0x80016b <O+0x1>
    15c4:	10 92 6a 01 	sts	0x016A, r1	; 0x80016a <O>
    15c8:	35 c0       	rjmp	.+106    	; 0x1634 <__stack+0x1135>
Z:\Projects\PS1\PSX-Controller-DB-15-Adapter\Code\Psx_To_DB-15_REMAP_AF/Psx_To_DB-15_REMAP_AF.ino:207
    TR = 0;     
  }
if ((SQA == 1 && autofiretimer1 < 1) || (SQA == 2 && autofiretimer2 < 2) || (SQA == 3 && autofiretimer3 < 2) || (SQA == 4 && autofiretimer4 < 3) || (SQA == 5 && autofiretimer5 < 4) || (SQA == 6 && autofiretimer6 < 5)){
    SQ = 0;     
  }
if ((R2A == 1 && autofiretimer1 < 1) || (R2A == 2 && autofiretimer2 < 2) || (R2A == 3 && autofiretimer3 < 2) || (R2A == 4 && autofiretimer4 < 3) || (R2A == 5 && autofiretimer5 < 4) || (R2A == 6 && autofiretimer6 < 5)){
    15ca:	23 30       	cpi	r18, 0x03	; 3
    15cc:	31 05       	cpc	r19, r1
    15ce:	29 f4       	brne	.+10     	; 0x15da <__stack+0x10db>
    15d0:	20 91 58 01 	lds	r18, 0x0158	; 0x800158 <autofiretimer3>
    15d4:	30 91 59 01 	lds	r19, 0x0159	; 0x800159 <autofiretimer3+0x1>
    15d8:	e2 cf       	rjmp	.-60     	; 0x159e <__stack+0x109f>
    15da:	24 30       	cpi	r18, 0x04	; 4
    15dc:	31 05       	cpc	r19, r1
    15de:	49 f4       	brne	.+18     	; 0x15f2 <__stack+0x10f3>
    15e0:	20 91 56 01 	lds	r18, 0x0156	; 0x800156 <autofiretimer4>
    15e4:	30 91 57 01 	lds	r19, 0x0157	; 0x800157 <autofiretimer4+0x1>
    15e8:	23 30       	cpi	r18, 0x03	; 3
    15ea:	31 05       	cpc	r19, r1
    15ec:	0c f4       	brge	.+2      	; 0x15f0 <__stack+0x10f1>
    15ee:	a0 cf       	rjmp	.-192    	; 0x1530 <__stack+0x1031>
    15f0:	d9 cf       	rjmp	.-78     	; 0x15a4 <__stack+0x10a5>
    15f2:	25 30       	cpi	r18, 0x05	; 5
    15f4:	31 05       	cpc	r19, r1
    15f6:	49 f4       	brne	.+18     	; 0x160a <__stack+0x110b>
    15f8:	20 91 54 01 	lds	r18, 0x0154	; 0x800154 <autofiretimer5>
    15fc:	30 91 55 01 	lds	r19, 0x0155	; 0x800155 <autofiretimer5+0x1>
    1600:	24 30       	cpi	r18, 0x04	; 4
    1602:	31 05       	cpc	r19, r1
    1604:	0c f4       	brge	.+2      	; 0x1608 <__stack+0x1109>
    1606:	94 cf       	rjmp	.-216    	; 0x1530 <__stack+0x1031>
    1608:	cd cf       	rjmp	.-102    	; 0x15a4 <__stack+0x10a5>
    160a:	26 30       	cpi	r18, 0x06	; 6
    160c:	31 05       	cpc	r19, r1
    160e:	51 f6       	brne	.-108    	; 0x15a4 <__stack+0x10a5>
    1610:	20 91 52 01 	lds	r18, 0x0152	; 0x800152 <autofiretimer6>
    1614:	30 91 53 01 	lds	r19, 0x0153	; 0x800153 <autofiretimer6+0x1>
    1618:	25 30       	cpi	r18, 0x05	; 5
    161a:	31 05       	cpc	r19, r1
    161c:	1c f6       	brge	.-122    	; 0x15a4 <__stack+0x10a5>
    161e:	88 cf       	rjmp	.-240    	; 0x1530 <__stack+0x1031>
Z:\Projects\PS1\PSX-Controller-DB-15-Adapter\Code\Psx_To_DB-15_REMAP_AF/Psx_To_DB-15_REMAP_AF.ino:210
    R2 = 0;     
  }  
if ((OA == 1 && autofiretimer1 < 1) || (OA == 2 && autofiretimer2 < 2) || (OA == 3 && autofiretimer3 < 2) || (OA == 4 && autofiretimer4 < 3) || (OA == 5 && autofiretimer5 < 4) || (OA == 6 && autofiretimer6 < 5)){
    1620:	22 30       	cpi	r18, 0x02	; 2
    1622:	31 05       	cpc	r19, r1
    1624:	d1 f4       	brne	.+52     	; 0x165a <__stack+0x115b>
    1626:	20 91 5a 01 	lds	r18, 0x015A	; 0x80015a <autofiretimer2>
    162a:	30 91 5b 01 	lds	r19, 0x015B	; 0x80015b <autofiretimer2+0x1>
    162e:	22 30       	cpi	r18, 0x02	; 2
    1630:	31 05       	cpc	r19, r1
    1632:	34 f2       	brlt	.-116    	; 0x15c0 <__stack+0x10c1>
Z:\Projects\PS1\PSX-Controller-DB-15-Adapter\Code\Psx_To_DB-15_REMAP_AF/Psx_To_DB-15_REMAP_AF.ino:213
    O = 0;     
  }
if ((XA == 1 && autofiretimer1 < 1) || (XA == 2 && autofiretimer2 < 2) || (XA == 3 && autofiretimer3 < 2) || (XA == 4 && autofiretimer4 < 3) || (XA == 5 && autofiretimer5 < 4) || (XA == 6 && autofiretimer6 < 5)){
    1634:	20 91 48 01 	lds	r18, 0x0148	; 0x800148 <XA>
    1638:	30 91 49 01 	lds	r19, 0x0149	; 0x800149 <XA+0x1>
    163c:	21 30       	cpi	r18, 0x01	; 1
    163e:	31 05       	cpc	r19, r1
    1640:	b9 f5       	brne	.+110    	; 0x16b0 <__stack+0x11b1>
    1642:	20 91 5c 01 	lds	r18, 0x015C	; 0x80015c <autofiretimer1>
    1646:	30 91 5d 01 	lds	r19, 0x015D	; 0x80015d <autofiretimer1+0x1>
    164a:	12 16       	cp	r1, r18
    164c:	13 06       	cpc	r1, r19
    164e:	d4 f1       	brlt	.+116    	; 0x16c4 <__stack+0x11c5>
Z:\Projects\PS1\PSX-Controller-DB-15-Adapter\Code\Psx_To_DB-15_REMAP_AF/Psx_To_DB-15_REMAP_AF.ino:214
    X = 0;     
    1650:	10 92 69 01 	sts	0x0169, r1	; 0x800169 <X+0x1>
    1654:	10 92 68 01 	sts	0x0168, r1	; 0x800168 <X>
    1658:	35 c0       	rjmp	.+106    	; 0x16c4 <__stack+0x11c5>
Z:\Projects\PS1\PSX-Controller-DB-15-Adapter\Code\Psx_To_DB-15_REMAP_AF/Psx_To_DB-15_REMAP_AF.ino:210
    SQ = 0;     
  }
if ((R2A == 1 && autofiretimer1 < 1) || (R2A == 2 && autofiretimer2 < 2) || (R2A == 3 && autofiretimer3 < 2) || (R2A == 4 && autofiretimer4 < 3) || (R2A == 5 && autofiretimer5 < 4) || (R2A == 6 && autofiretimer6 < 5)){
    R2 = 0;     
  }  
if ((OA == 1 && autofiretimer1 < 1) || (OA == 2 && autofiretimer2 < 2) || (OA == 3 && autofiretimer3 < 2) || (OA == 4 && autofiretimer4 < 3) || (OA == 5 && autofiretimer5 < 4) || (OA == 6 && autofiretimer6 < 5)){
    165a:	23 30       	cpi	r18, 0x03	; 3
    165c:	31 05       	cpc	r19, r1
    165e:	29 f4       	brne	.+10     	; 0x166a <__stack+0x116b>
    1660:	20 91 58 01 	lds	r18, 0x0158	; 0x800158 <autofiretimer3>
    1664:	30 91 59 01 	lds	r19, 0x0159	; 0x800159 <autofiretimer3+0x1>
    1668:	e2 cf       	rjmp	.-60     	; 0x162e <__stack+0x112f>
    166a:	24 30       	cpi	r18, 0x04	; 4
    166c:	31 05       	cpc	r19, r1
    166e:	49 f4       	brne	.+18     	; 0x1682 <__stack+0x1183>
    1670:	20 91 56 01 	lds	r18, 0x0156	; 0x800156 <autofiretimer4>
    1674:	30 91 57 01 	lds	r19, 0x0157	; 0x800157 <autofiretimer4+0x1>
    1678:	23 30       	cpi	r18, 0x03	; 3
    167a:	31 05       	cpc	r19, r1
    167c:	0c f4       	brge	.+2      	; 0x1680 <__stack+0x1181>
    167e:	a0 cf       	rjmp	.-192    	; 0x15c0 <__stack+0x10c1>
    1680:	d9 cf       	rjmp	.-78     	; 0x1634 <__stack+0x1135>
    1682:	25 30       	cpi	r18, 0x05	; 5
    1684:	31 05       	cpc	r19, r1
    1686:	49 f4       	brne	.+18     	; 0x169a <__stack+0x119b>
    1688:	20 91 54 01 	lds	r18, 0x0154	; 0x800154 <autofiretimer5>
    168c:	30 91 55 01 	lds	r19, 0x0155	; 0x800155 <autofiretimer5+0x1>
    1690:	24 30       	cpi	r18, 0x04	; 4
    1692:	31 05       	cpc	r19, r1
    1694:	0c f4       	brge	.+2      	; 0x1698 <__stack+0x1199>
    1696:	94 cf       	rjmp	.-216    	; 0x15c0 <__stack+0x10c1>
    1698:	cd cf       	rjmp	.-102    	; 0x1634 <__stack+0x1135>
    169a:	26 30       	cpi	r18, 0x06	; 6
    169c:	31 05       	cpc	r19, r1
    169e:	51 f6       	brne	.-108    	; 0x1634 <__stack+0x1135>
    16a0:	20 91 52 01 	lds	r18, 0x0152	; 0x800152 <autofiretimer6>
    16a4:	30 91 53 01 	lds	r19, 0x0153	; 0x800153 <autofiretimer6+0x1>
    16a8:	25 30       	cpi	r18, 0x05	; 5
    16aa:	31 05       	cpc	r19, r1
    16ac:	1c f6       	brge	.-122    	; 0x1634 <__stack+0x1135>
    16ae:	88 cf       	rjmp	.-240    	; 0x15c0 <__stack+0x10c1>
Z:\Projects\PS1\PSX-Controller-DB-15-Adapter\Code\Psx_To_DB-15_REMAP_AF/Psx_To_DB-15_REMAP_AF.ino:213
    O = 0;     
  }
if ((XA == 1 && autofiretimer1 < 1) || (XA == 2 && autofiretimer2 < 2) || (XA == 3 && autofiretimer3 < 2) || (XA == 4 && autofiretimer4 < 3) || (XA == 5 && autofiretimer5 < 4) || (XA == 6 && autofiretimer6 < 5)){
    16b0:	22 30       	cpi	r18, 0x02	; 2
    16b2:	31 05       	cpc	r19, r1
    16b4:	d1 f4       	brne	.+52     	; 0x16ea <__stack+0x11eb>
    16b6:	20 91 5a 01 	lds	r18, 0x015A	; 0x80015a <autofiretimer2>
    16ba:	30 91 5b 01 	lds	r19, 0x015B	; 0x80015b <autofiretimer2+0x1>
    16be:	22 30       	cpi	r18, 0x02	; 2
    16c0:	31 05       	cpc	r19, r1
    16c2:	34 f2       	brlt	.-116    	; 0x1650 <__stack+0x1151>
Z:\Projects\PS1\PSX-Controller-DB-15-Adapter\Code\Psx_To_DB-15_REMAP_AF/Psx_To_DB-15_REMAP_AF.ino:216
    X = 0;     
  }
if ((R1A == 1 && autofiretimer1 < 1) || (R1A == 2 && autofiretimer2 < 2) || (R1A == 3 && autofiretimer3 < 2) || (R1A == 4 && autofiretimer4 < 3) || (R1A == 5 && autofiretimer5 < 4) || (R1A == 6 && autofiretimer6 < 5)){
    16c4:	20 91 46 01 	lds	r18, 0x0146	; 0x800146 <R1A>
    16c8:	30 91 47 01 	lds	r19, 0x0147	; 0x800147 <R1A+0x1>
    16cc:	21 30       	cpi	r18, 0x01	; 1
    16ce:	31 05       	cpc	r19, r1
    16d0:	b9 f5       	brne	.+110    	; 0x1740 <__stack+0x1241>
    16d2:	20 91 5c 01 	lds	r18, 0x015C	; 0x80015c <autofiretimer1>
    16d6:	30 91 5d 01 	lds	r19, 0x015D	; 0x80015d <autofiretimer1+0x1>
    16da:	12 16       	cp	r1, r18
    16dc:	13 06       	cpc	r1, r19
    16de:	d4 f1       	brlt	.+116    	; 0x1754 <__stack+0x1255>
Z:\Projects\PS1\PSX-Controller-DB-15-Adapter\Code\Psx_To_DB-15_REMAP_AF/Psx_To_DB-15_REMAP_AF.ino:217
    R1 = 0;     
    16e0:	10 92 6d 01 	sts	0x016D, r1	; 0x80016d <R1+0x1>
    16e4:	10 92 6c 01 	sts	0x016C, r1	; 0x80016c <R1>
    16e8:	35 c0       	rjmp	.+106    	; 0x1754 <__stack+0x1255>
Z:\Projects\PS1\PSX-Controller-DB-15-Adapter\Code\Psx_To_DB-15_REMAP_AF/Psx_To_DB-15_REMAP_AF.ino:213
    R2 = 0;     
  }  
if ((OA == 1 && autofiretimer1 < 1) || (OA == 2 && autofiretimer2 < 2) || (OA == 3 && autofiretimer3 < 2) || (OA == 4 && autofiretimer4 < 3) || (OA == 5 && autofiretimer5 < 4) || (OA == 6 && autofiretimer6 < 5)){
    O = 0;     
  }
if ((XA == 1 && autofiretimer1 < 1) || (XA == 2 && autofiretimer2 < 2) || (XA == 3 && autofiretimer3 < 2) || (XA == 4 && autofiretimer4 < 3) || (XA == 5 && autofiretimer5 < 4) || (XA == 6 && autofiretimer6 < 5)){
    16ea:	23 30       	cpi	r18, 0x03	; 3
    16ec:	31 05       	cpc	r19, r1
    16ee:	29 f4       	brne	.+10     	; 0x16fa <__stack+0x11fb>
    16f0:	20 91 58 01 	lds	r18, 0x0158	; 0x800158 <autofiretimer3>
    16f4:	30 91 59 01 	lds	r19, 0x0159	; 0x800159 <autofiretimer3+0x1>
    16f8:	e2 cf       	rjmp	.-60     	; 0x16be <__stack+0x11bf>
    16fa:	24 30       	cpi	r18, 0x04	; 4
    16fc:	31 05       	cpc	r19, r1
    16fe:	49 f4       	brne	.+18     	; 0x1712 <__stack+0x1213>
    1700:	20 91 56 01 	lds	r18, 0x0156	; 0x800156 <autofiretimer4>
    1704:	30 91 57 01 	lds	r19, 0x0157	; 0x800157 <autofiretimer4+0x1>
    1708:	23 30       	cpi	r18, 0x03	; 3
    170a:	31 05       	cpc	r19, r1
    170c:	0c f4       	brge	.+2      	; 0x1710 <__stack+0x1211>
    170e:	a0 cf       	rjmp	.-192    	; 0x1650 <__stack+0x1151>
    1710:	d9 cf       	rjmp	.-78     	; 0x16c4 <__stack+0x11c5>
    1712:	25 30       	cpi	r18, 0x05	; 5
    1714:	31 05       	cpc	r19, r1
    1716:	49 f4       	brne	.+18     	; 0x172a <__stack+0x122b>
    1718:	20 91 54 01 	lds	r18, 0x0154	; 0x800154 <autofiretimer5>
    171c:	30 91 55 01 	lds	r19, 0x0155	; 0x800155 <autofiretimer5+0x1>
    1720:	24 30       	cpi	r18, 0x04	; 4
    1722:	31 05       	cpc	r19, r1
    1724:	0c f4       	brge	.+2      	; 0x1728 <__stack+0x1229>
    1726:	94 cf       	rjmp	.-216    	; 0x1650 <__stack+0x1151>
    1728:	cd cf       	rjmp	.-102    	; 0x16c4 <__stack+0x11c5>
    172a:	26 30       	cpi	r18, 0x06	; 6
    172c:	31 05       	cpc	r19, r1
    172e:	51 f6       	brne	.-108    	; 0x16c4 <__stack+0x11c5>
    1730:	20 91 52 01 	lds	r18, 0x0152	; 0x800152 <autofiretimer6>
    1734:	30 91 53 01 	lds	r19, 0x0153	; 0x800153 <autofiretimer6+0x1>
    1738:	25 30       	cpi	r18, 0x05	; 5
    173a:	31 05       	cpc	r19, r1
    173c:	1c f6       	brge	.-122    	; 0x16c4 <__stack+0x11c5>
    173e:	88 cf       	rjmp	.-240    	; 0x1650 <__stack+0x1151>
Z:\Projects\PS1\PSX-Controller-DB-15-Adapter\Code\Psx_To_DB-15_REMAP_AF/Psx_To_DB-15_REMAP_AF.ino:216
    X = 0;     
  }
if ((R1A == 1 && autofiretimer1 < 1) || (R1A == 2 && autofiretimer2 < 2) || (R1A == 3 && autofiretimer3 < 2) || (R1A == 4 && autofiretimer4 < 3) || (R1A == 5 && autofiretimer5 < 4) || (R1A == 6 && autofiretimer6 < 5)){
    1740:	22 30       	cpi	r18, 0x02	; 2
    1742:	31 05       	cpc	r19, r1
    1744:	d1 f4       	brne	.+52     	; 0x177a <__stack+0x127b>
    1746:	20 91 5a 01 	lds	r18, 0x015A	; 0x80015a <autofiretimer2>
    174a:	30 91 5b 01 	lds	r19, 0x015B	; 0x80015b <autofiretimer2+0x1>
    174e:	22 30       	cpi	r18, 0x02	; 2
    1750:	31 05       	cpc	r19, r1
    1752:	34 f2       	brlt	.-116    	; 0x16e0 <__stack+0x11e1>
Z:\Projects\PS1\PSX-Controller-DB-15-Adapter\Code\Psx_To_DB-15_REMAP_AF/Psx_To_DB-15_REMAP_AF.ino:219
    R1 = 0;     
  }
if ((L1A == 1 && autofiretimer1 < 1) || (L1A == 2 && autofiretimer2 < 2) || (L1A == 3 && autofiretimer3 < 2) || (L1A == 4 && autofiretimer4 < 3) || (L1A == 5 && autofiretimer5 < 4) || (L1A == 6 && autofiretimer6 < 5)){
    1754:	20 91 44 01 	lds	r18, 0x0144	; 0x800144 <L1A>
    1758:	30 91 45 01 	lds	r19, 0x0145	; 0x800145 <L1A+0x1>
    175c:	21 30       	cpi	r18, 0x01	; 1
    175e:	31 05       	cpc	r19, r1
    1760:	b9 f5       	brne	.+110    	; 0x17d0 <__stack+0x12d1>
    1762:	20 91 5c 01 	lds	r18, 0x015C	; 0x80015c <autofiretimer1>
    1766:	30 91 5d 01 	lds	r19, 0x015D	; 0x80015d <autofiretimer1+0x1>
    176a:	12 16       	cp	r1, r18
    176c:	13 06       	cpc	r1, r19
    176e:	d4 f1       	brlt	.+116    	; 0x17e4 <__stack+0x12e5>
Z:\Projects\PS1\PSX-Controller-DB-15-Adapter\Code\Psx_To_DB-15_REMAP_AF/Psx_To_DB-15_REMAP_AF.ino:220
    L1 = 0;     
    1770:	10 92 65 01 	sts	0x0165, r1	; 0x800165 <L1+0x1>
    1774:	10 92 64 01 	sts	0x0164, r1	; 0x800164 <L1>
    1778:	35 c0       	rjmp	.+106    	; 0x17e4 <__stack+0x12e5>
Z:\Projects\PS1\PSX-Controller-DB-15-Adapter\Code\Psx_To_DB-15_REMAP_AF/Psx_To_DB-15_REMAP_AF.ino:216
    O = 0;     
  }
if ((XA == 1 && autofiretimer1 < 1) || (XA == 2 && autofiretimer2 < 2) || (XA == 3 && autofiretimer3 < 2) || (XA == 4 && autofiretimer4 < 3) || (XA == 5 && autofiretimer5 < 4) || (XA == 6 && autofiretimer6 < 5)){
    X = 0;     
  }
if ((R1A == 1 && autofiretimer1 < 1) || (R1A == 2 && autofiretimer2 < 2) || (R1A == 3 && autofiretimer3 < 2) || (R1A == 4 && autofiretimer4 < 3) || (R1A == 5 && autofiretimer5 < 4) || (R1A == 6 && autofiretimer6 < 5)){
    177a:	23 30       	cpi	r18, 0x03	; 3
    177c:	31 05       	cpc	r19, r1
    177e:	29 f4       	brne	.+10     	; 0x178a <__stack+0x128b>
    1780:	20 91 58 01 	lds	r18, 0x0158	; 0x800158 <autofiretimer3>
    1784:	30 91 59 01 	lds	r19, 0x0159	; 0x800159 <autofiretimer3+0x1>
    1788:	e2 cf       	rjmp	.-60     	; 0x174e <__stack+0x124f>
    178a:	24 30       	cpi	r18, 0x04	; 4
    178c:	31 05       	cpc	r19, r1
    178e:	49 f4       	brne	.+18     	; 0x17a2 <__stack+0x12a3>
    1790:	20 91 56 01 	lds	r18, 0x0156	; 0x800156 <autofiretimer4>
    1794:	30 91 57 01 	lds	r19, 0x0157	; 0x800157 <autofiretimer4+0x1>
    1798:	23 30       	cpi	r18, 0x03	; 3
    179a:	31 05       	cpc	r19, r1
    179c:	0c f4       	brge	.+2      	; 0x17a0 <__stack+0x12a1>
    179e:	a0 cf       	rjmp	.-192    	; 0x16e0 <__stack+0x11e1>
    17a0:	d9 cf       	rjmp	.-78     	; 0x1754 <__stack+0x1255>
    17a2:	25 30       	cpi	r18, 0x05	; 5
    17a4:	31 05       	cpc	r19, r1
    17a6:	49 f4       	brne	.+18     	; 0x17ba <__stack+0x12bb>
    17a8:	20 91 54 01 	lds	r18, 0x0154	; 0x800154 <autofiretimer5>
    17ac:	30 91 55 01 	lds	r19, 0x0155	; 0x800155 <autofiretimer5+0x1>
    17b0:	24 30       	cpi	r18, 0x04	; 4
    17b2:	31 05       	cpc	r19, r1
    17b4:	0c f4       	brge	.+2      	; 0x17b8 <__stack+0x12b9>
    17b6:	94 cf       	rjmp	.-216    	; 0x16e0 <__stack+0x11e1>
    17b8:	cd cf       	rjmp	.-102    	; 0x1754 <__stack+0x1255>
    17ba:	26 30       	cpi	r18, 0x06	; 6
    17bc:	31 05       	cpc	r19, r1
    17be:	51 f6       	brne	.-108    	; 0x1754 <__stack+0x1255>
    17c0:	20 91 52 01 	lds	r18, 0x0152	; 0x800152 <autofiretimer6>
    17c4:	30 91 53 01 	lds	r19, 0x0153	; 0x800153 <autofiretimer6+0x1>
    17c8:	25 30       	cpi	r18, 0x05	; 5
    17ca:	31 05       	cpc	r19, r1
    17cc:	1c f6       	brge	.-122    	; 0x1754 <__stack+0x1255>
    17ce:	88 cf       	rjmp	.-240    	; 0x16e0 <__stack+0x11e1>
Z:\Projects\PS1\PSX-Controller-DB-15-Adapter\Code\Psx_To_DB-15_REMAP_AF/Psx_To_DB-15_REMAP_AF.ino:219
    R1 = 0;     
  }
if ((L1A == 1 && autofiretimer1 < 1) || (L1A == 2 && autofiretimer2 < 2) || (L1A == 3 && autofiretimer3 < 2) || (L1A == 4 && autofiretimer4 < 3) || (L1A == 5 && autofiretimer5 < 4) || (L1A == 6 && autofiretimer6 < 5)){
    17d0:	22 30       	cpi	r18, 0x02	; 2
    17d2:	31 05       	cpc	r19, r1
    17d4:	d1 f4       	brne	.+52     	; 0x180a <__stack+0x130b>
    17d6:	20 91 5a 01 	lds	r18, 0x015A	; 0x80015a <autofiretimer2>
    17da:	30 91 5b 01 	lds	r19, 0x015B	; 0x80015b <autofiretimer2+0x1>
    17de:	22 30       	cpi	r18, 0x02	; 2
    17e0:	31 05       	cpc	r19, r1
    17e2:	34 f2       	brlt	.-116    	; 0x1770 <__stack+0x1271>
Z:\Projects\PS1\PSX-Controller-DB-15-Adapter\Code\Psx_To_DB-15_REMAP_AF/Psx_To_DB-15_REMAP_AF.ino:222
    L1 = 0;     
  }
if ((L2A == 1 && autofiretimer1 < 1) || (L2A == 2 && autofiretimer2 < 2) || (L2A == 3 && autofiretimer3 < 2) || (L2A == 4 && autofiretimer4 < 3) || (L2A == 5 && autofiretimer5 < 4) || (L2A == 6 && autofiretimer6 < 5)){
    17e4:	20 91 42 01 	lds	r18, 0x0142	; 0x800142 <L2A>
    17e8:	30 91 43 01 	lds	r19, 0x0143	; 0x800143 <L2A+0x1>
    17ec:	21 30       	cpi	r18, 0x01	; 1
    17ee:	31 05       	cpc	r19, r1
    17f0:	b9 f5       	brne	.+110    	; 0x1860 <__stack+0x1361>
    17f2:	20 91 5c 01 	lds	r18, 0x015C	; 0x80015c <autofiretimer1>
    17f6:	30 91 5d 01 	lds	r19, 0x015D	; 0x80015d <autofiretimer1+0x1>
    17fa:	12 16       	cp	r1, r18
    17fc:	13 06       	cpc	r1, r19
    17fe:	dc f1       	brlt	.+118    	; 0x1876 <__stack+0x1377>
Z:\Projects\PS1\PSX-Controller-DB-15-Adapter\Code\Psx_To_DB-15_REMAP_AF/Psx_To_DB-15_REMAP_AF.ino:223
    L2 = 0;     
    1800:	10 92 63 01 	sts	0x0163, r1	; 0x800163 <L2+0x1>
    1804:	10 92 62 01 	sts	0x0162, r1	; 0x800162 <L2>
    1808:	36 c0       	rjmp	.+108    	; 0x1876 <__stack+0x1377>
Z:\Projects\PS1\PSX-Controller-DB-15-Adapter\Code\Psx_To_DB-15_REMAP_AF/Psx_To_DB-15_REMAP_AF.ino:219
    X = 0;     
  }
if ((R1A == 1 && autofiretimer1 < 1) || (R1A == 2 && autofiretimer2 < 2) || (R1A == 3 && autofiretimer3 < 2) || (R1A == 4 && autofiretimer4 < 3) || (R1A == 5 && autofiretimer5 < 4) || (R1A == 6 && autofiretimer6 < 5)){
    R1 = 0;     
  }
if ((L1A == 1 && autofiretimer1 < 1) || (L1A == 2 && autofiretimer2 < 2) || (L1A == 3 && autofiretimer3 < 2) || (L1A == 4 && autofiretimer4 < 3) || (L1A == 5 && autofiretimer5 < 4) || (L1A == 6 && autofiretimer6 < 5)){
    180a:	23 30       	cpi	r18, 0x03	; 3
    180c:	31 05       	cpc	r19, r1
    180e:	29 f4       	brne	.+10     	; 0x181a <__stack+0x131b>
    1810:	20 91 58 01 	lds	r18, 0x0158	; 0x800158 <autofiretimer3>
    1814:	30 91 59 01 	lds	r19, 0x0159	; 0x800159 <autofiretimer3+0x1>
    1818:	e2 cf       	rjmp	.-60     	; 0x17de <__stack+0x12df>
    181a:	24 30       	cpi	r18, 0x04	; 4
    181c:	31 05       	cpc	r19, r1
    181e:	49 f4       	brne	.+18     	; 0x1832 <__stack+0x1333>
    1820:	20 91 56 01 	lds	r18, 0x0156	; 0x800156 <autofiretimer4>
    1824:	30 91 57 01 	lds	r19, 0x0157	; 0x800157 <autofiretimer4+0x1>
    1828:	23 30       	cpi	r18, 0x03	; 3
    182a:	31 05       	cpc	r19, r1
    182c:	0c f4       	brge	.+2      	; 0x1830 <__stack+0x1331>
    182e:	a0 cf       	rjmp	.-192    	; 0x1770 <__stack+0x1271>
    1830:	d9 cf       	rjmp	.-78     	; 0x17e4 <__stack+0x12e5>
    1832:	25 30       	cpi	r18, 0x05	; 5
    1834:	31 05       	cpc	r19, r1
    1836:	49 f4       	brne	.+18     	; 0x184a <__stack+0x134b>
    1838:	20 91 54 01 	lds	r18, 0x0154	; 0x800154 <autofiretimer5>
    183c:	30 91 55 01 	lds	r19, 0x0155	; 0x800155 <autofiretimer5+0x1>
    1840:	24 30       	cpi	r18, 0x04	; 4
    1842:	31 05       	cpc	r19, r1
    1844:	0c f4       	brge	.+2      	; 0x1848 <__stack+0x1349>
    1846:	94 cf       	rjmp	.-216    	; 0x1770 <__stack+0x1271>
    1848:	cd cf       	rjmp	.-102    	; 0x17e4 <__stack+0x12e5>
    184a:	26 30       	cpi	r18, 0x06	; 6
    184c:	31 05       	cpc	r19, r1
    184e:	51 f6       	brne	.-108    	; 0x17e4 <__stack+0x12e5>
    1850:	20 91 52 01 	lds	r18, 0x0152	; 0x800152 <autofiretimer6>
    1854:	30 91 53 01 	lds	r19, 0x0153	; 0x800153 <autofiretimer6+0x1>
    1858:	25 30       	cpi	r18, 0x05	; 5
    185a:	31 05       	cpc	r19, r1
    185c:	1c f6       	brge	.-122    	; 0x17e4 <__stack+0x12e5>
    185e:	88 cf       	rjmp	.-240    	; 0x1770 <__stack+0x1271>
Z:\Projects\PS1\PSX-Controller-DB-15-Adapter\Code\Psx_To_DB-15_REMAP_AF/Psx_To_DB-15_REMAP_AF.ino:222
    L1 = 0;     
  }
if ((L2A == 1 && autofiretimer1 < 1) || (L2A == 2 && autofiretimer2 < 2) || (L2A == 3 && autofiretimer3 < 2) || (L2A == 4 && autofiretimer4 < 3) || (L2A == 5 && autofiretimer5 < 4) || (L2A == 6 && autofiretimer6 < 5)){
    1860:	22 30       	cpi	r18, 0x02	; 2
    1862:	31 05       	cpc	r19, r1
    1864:	09 f0       	breq	.+2      	; 0x1868 <__stack+0x1369>
    1866:	37 c1       	rjmp	.+622    	; 0x1ad6 <__stack+0x15d7>
    1868:	20 91 5a 01 	lds	r18, 0x015A	; 0x80015a <autofiretimer2>
    186c:	30 91 5b 01 	lds	r19, 0x015B	; 0x80015b <autofiretimer2+0x1>
    1870:	22 30       	cpi	r18, 0x02	; 2
    1872:	31 05       	cpc	r19, r1
    1874:	2c f2       	brlt	.-118    	; 0x1800 <__stack+0x1301>
setoutputs():
Z:\Projects\PS1\PSX-Controller-DB-15-Adapter\Code\Psx_To_DB-15_REMAP_AF/Psx_To_DB-15_REMAP_AF.ino:339
}


void setoutputs(){           // Translates demuxpad data into the sixbutton output map.

if (SQ == 2 || TR == 2 || R1 == 2 || O == 2 || X == 2 || R2 == 2 || L1 == 2 || L2 == 2) 
    1876:	a0 91 70 01 	lds	r26, 0x0170	; 0x800170 <SQ>
    187a:	b0 91 71 01 	lds	r27, 0x0171	; 0x800171 <SQ+0x1>
    187e:	e0 90 6e 01 	lds	r14, 0x016E	; 0x80016e <TR>
    1882:	f0 90 6f 01 	lds	r15, 0x016F	; 0x80016f <TR+0x1>
    1886:	e0 91 6c 01 	lds	r30, 0x016C	; 0x80016c <R1>
    188a:	f0 91 6d 01 	lds	r31, 0x016D	; 0x80016d <R1+0x1>
    188e:	60 91 6a 01 	lds	r22, 0x016A	; 0x80016a <O>
    1892:	70 91 6b 01 	lds	r23, 0x016B	; 0x80016b <O+0x1>
    1896:	40 91 68 01 	lds	r20, 0x0168	; 0x800168 <X>
    189a:	50 91 69 01 	lds	r21, 0x0169	; 0x800169 <X+0x1>
    189e:	20 91 66 01 	lds	r18, 0x0166	; 0x800166 <R2>
    18a2:	30 91 67 01 	lds	r19, 0x0167	; 0x800167 <R2+0x1>
    18a6:	a2 30       	cpi	r26, 0x02	; 2
    18a8:	b1 05       	cpc	r27, r1
    18aa:	01 f1       	breq	.+64     	; 0x18ec <__stack+0x13ed>
    18ac:	12 e0       	ldi	r17, 0x02	; 2
    18ae:	e1 16       	cp	r14, r17
    18b0:	f1 04       	cpc	r15, r1
    18b2:	e1 f0       	breq	.+56     	; 0x18ec <__stack+0x13ed>
    18b4:	e2 30       	cpi	r30, 0x02	; 2
    18b6:	f1 05       	cpc	r31, r1
    18b8:	c9 f0       	breq	.+50     	; 0x18ec <__stack+0x13ed>
    18ba:	62 30       	cpi	r22, 0x02	; 2
    18bc:	71 05       	cpc	r23, r1
    18be:	b1 f0       	breq	.+44     	; 0x18ec <__stack+0x13ed>
    18c0:	42 30       	cpi	r20, 0x02	; 2
    18c2:	51 05       	cpc	r21, r1
    18c4:	99 f0       	breq	.+38     	; 0x18ec <__stack+0x13ed>
    18c6:	22 30       	cpi	r18, 0x02	; 2
    18c8:	31 05       	cpc	r19, r1
    18ca:	81 f0       	breq	.+32     	; 0x18ec <__stack+0x13ed>
    18cc:	c0 90 64 01 	lds	r12, 0x0164	; 0x800164 <L1>
    18d0:	d0 90 65 01 	lds	r13, 0x0165	; 0x800165 <L1+0x1>
    18d4:	12 e0       	ldi	r17, 0x02	; 2
    18d6:	c1 16       	cp	r12, r17
    18d8:	d1 04       	cpc	r13, r1
    18da:	41 f0       	breq	.+16     	; 0x18ec <__stack+0x13ed>
    18dc:	c0 90 62 01 	lds	r12, 0x0162	; 0x800162 <L2>
    18e0:	d0 90 63 01 	lds	r13, 0x0163	; 0x800163 <L2+0x1>
    18e4:	12 e0       	ldi	r17, 0x02	; 2
    18e6:	c1 16       	cp	r12, r17
    18e8:	d1 04       	cpc	r13, r1
    18ea:	51 f4       	brne	.+20     	; 0x1900 <__stack+0x1401>
Z:\Projects\PS1\PSX-Controller-DB-15-Adapter\Code\Psx_To_DB-15_REMAP_AF/Psx_To_DB-15_REMAP_AF.ino:340
  outputb |= 1;                    
    18ec:	c0 90 74 01 	lds	r12, 0x0174	; 0x800174 <outputb>
    18f0:	d0 90 75 01 	lds	r13, 0x0175	; 0x800175 <outputb+0x1>
    18f4:	68 94       	set
    18f6:	c0 f8       	bld	r12, 0
    18f8:	d0 92 75 01 	sts	0x0175, r13	; 0x800175 <outputb+0x1>
    18fc:	c0 92 74 01 	sts	0x0174, r12	; 0x800174 <outputb>
Z:\Projects\PS1\PSX-Controller-DB-15-Adapter\Code\Psx_To_DB-15_REMAP_AF/Psx_To_DB-15_REMAP_AF.ino:341
if (R1 == 3 || SQ == 3 || TR == 3 || O == 3 || X == 3 || R2 == 3 || L1 == 3 || L2 == 3)
    1900:	e3 30       	cpi	r30, 0x03	; 3
    1902:	f1 05       	cpc	r31, r1
    1904:	01 f1       	breq	.+64     	; 0x1946 <__stack+0x1447>
    1906:	a3 30       	cpi	r26, 0x03	; 3
    1908:	b1 05       	cpc	r27, r1
    190a:	e9 f0       	breq	.+58     	; 0x1946 <__stack+0x1447>
    190c:	13 e0       	ldi	r17, 0x03	; 3
    190e:	e1 16       	cp	r14, r17
    1910:	f1 04       	cpc	r15, r1
    1912:	c9 f0       	breq	.+50     	; 0x1946 <__stack+0x1447>
    1914:	63 30       	cpi	r22, 0x03	; 3
    1916:	71 05       	cpc	r23, r1
    1918:	b1 f0       	breq	.+44     	; 0x1946 <__stack+0x1447>
    191a:	43 30       	cpi	r20, 0x03	; 3
    191c:	51 05       	cpc	r21, r1
    191e:	99 f0       	breq	.+38     	; 0x1946 <__stack+0x1447>
    1920:	23 30       	cpi	r18, 0x03	; 3
    1922:	31 05       	cpc	r19, r1
    1924:	81 f0       	breq	.+32     	; 0x1946 <__stack+0x1447>
    1926:	c0 90 64 01 	lds	r12, 0x0164	; 0x800164 <L1>
    192a:	d0 90 65 01 	lds	r13, 0x0165	; 0x800165 <L1+0x1>
    192e:	13 e0       	ldi	r17, 0x03	; 3
    1930:	c1 16       	cp	r12, r17
    1932:	d1 04       	cpc	r13, r1
    1934:	41 f0       	breq	.+16     	; 0x1946 <__stack+0x1447>
    1936:	c0 90 62 01 	lds	r12, 0x0162	; 0x800162 <L2>
    193a:	d0 90 63 01 	lds	r13, 0x0163	; 0x800163 <L2+0x1>
    193e:	13 e0       	ldi	r17, 0x03	; 3
    1940:	c1 16       	cp	r12, r17
    1942:	d1 04       	cpc	r13, r1
    1944:	51 f4       	brne	.+20     	; 0x195a <__stack+0x145b>
Z:\Projects\PS1\PSX-Controller-DB-15-Adapter\Code\Psx_To_DB-15_REMAP_AF/Psx_To_DB-15_REMAP_AF.ino:342
  outputb |= 2; 
    1946:	c0 90 74 01 	lds	r12, 0x0174	; 0x800174 <outputb>
    194a:	d0 90 75 01 	lds	r13, 0x0175	; 0x800175 <outputb+0x1>
    194e:	68 94       	set
    1950:	c1 f8       	bld	r12, 1
    1952:	d0 92 75 01 	sts	0x0175, r13	; 0x800175 <outputb+0x1>
    1956:	c0 92 74 01 	sts	0x0174, r12	; 0x800174 <outputb>
Z:\Projects\PS1\PSX-Controller-DB-15-Adapter\Code\Psx_To_DB-15_REMAP_AF/Psx_To_DB-15_REMAP_AF.ino:343
if (O == 4 || SQ == 4 || TR == 4 || R1 == 4 || X == 4 || R2 == 4 || L1 == 4 || L2 == 4)
    195a:	64 30       	cpi	r22, 0x04	; 4
    195c:	71 05       	cpc	r23, r1
    195e:	01 f1       	breq	.+64     	; 0x19a0 <__stack+0x14a1>
    1960:	a4 30       	cpi	r26, 0x04	; 4
    1962:	b1 05       	cpc	r27, r1
    1964:	e9 f0       	breq	.+58     	; 0x19a0 <__stack+0x14a1>
    1966:	14 e0       	ldi	r17, 0x04	; 4
    1968:	e1 16       	cp	r14, r17
    196a:	f1 04       	cpc	r15, r1
    196c:	c9 f0       	breq	.+50     	; 0x19a0 <__stack+0x14a1>
    196e:	e4 30       	cpi	r30, 0x04	; 4
    1970:	f1 05       	cpc	r31, r1
    1972:	b1 f0       	breq	.+44     	; 0x19a0 <__stack+0x14a1>
    1974:	44 30       	cpi	r20, 0x04	; 4
    1976:	51 05       	cpc	r21, r1
    1978:	99 f0       	breq	.+38     	; 0x19a0 <__stack+0x14a1>
    197a:	24 30       	cpi	r18, 0x04	; 4
    197c:	31 05       	cpc	r19, r1
    197e:	81 f0       	breq	.+32     	; 0x19a0 <__stack+0x14a1>
    1980:	c0 90 64 01 	lds	r12, 0x0164	; 0x800164 <L1>
    1984:	d0 90 65 01 	lds	r13, 0x0165	; 0x800165 <L1+0x1>
    1988:	14 e0       	ldi	r17, 0x04	; 4
    198a:	c1 16       	cp	r12, r17
    198c:	d1 04       	cpc	r13, r1
    198e:	41 f0       	breq	.+16     	; 0x19a0 <__stack+0x14a1>
    1990:	c0 90 62 01 	lds	r12, 0x0162	; 0x800162 <L2>
    1994:	d0 90 63 01 	lds	r13, 0x0163	; 0x800163 <L2+0x1>
    1998:	14 e0       	ldi	r17, 0x04	; 4
    199a:	c1 16       	cp	r12, r17
    199c:	d1 04       	cpc	r13, r1
    199e:	51 f4       	brne	.+20     	; 0x19b4 <__stack+0x14b5>
Z:\Projects\PS1\PSX-Controller-DB-15-Adapter\Code\Psx_To_DB-15_REMAP_AF/Psx_To_DB-15_REMAP_AF.ino:344
  outputb |= 4;    
    19a0:	c0 90 74 01 	lds	r12, 0x0174	; 0x800174 <outputb>
    19a4:	d0 90 75 01 	lds	r13, 0x0175	; 0x800175 <outputb+0x1>
    19a8:	68 94       	set
    19aa:	c2 f8       	bld	r12, 2
    19ac:	d0 92 75 01 	sts	0x0175, r13	; 0x800175 <outputb+0x1>
    19b0:	c0 92 74 01 	sts	0x0174, r12	; 0x800174 <outputb>
Z:\Projects\PS1\PSX-Controller-DB-15-Adapter\Code\Psx_To_DB-15_REMAP_AF/Psx_To_DB-15_REMAP_AF.ino:345
if (ST == 1) 
    19b4:	01 97       	sbiw	r24, 0x01	; 1
    19b6:	49 f4       	brne	.+18     	; 0x19ca <__stack+0x14cb>
Z:\Projects\PS1\PSX-Controller-DB-15-Adapter\Code\Psx_To_DB-15_REMAP_AF/Psx_To_DB-15_REMAP_AF.ino:346
  outputb |= 8;
    19b8:	80 91 74 01 	lds	r24, 0x0174	; 0x800174 <outputb>
    19bc:	90 91 75 01 	lds	r25, 0x0175	; 0x800175 <outputb+0x1>
    19c0:	88 60       	ori	r24, 0x08	; 8
    19c2:	90 93 75 01 	sts	0x0175, r25	; 0x800175 <outputb+0x1>
    19c6:	80 93 74 01 	sts	0x0174, r24	; 0x800174 <outputb>
Z:\Projects\PS1\PSX-Controller-DB-15-Adapter\Code\Psx_To_DB-15_REMAP_AF/Psx_To_DB-15_REMAP_AF.ino:347
if (R2 == 6 || SQ == 6 || TR == 6 || R1 == 6 || O == 6 || X == 6 || L1 == 6 || L2 == 6)
    19ca:	26 30       	cpi	r18, 0x06	; 6
    19cc:	31 05       	cpc	r19, r1
    19ce:	e1 f0       	breq	.+56     	; 0x1a08 <__stack+0x1509>
    19d0:	a6 30       	cpi	r26, 0x06	; 6
    19d2:	b1 05       	cpc	r27, r1
    19d4:	c9 f0       	breq	.+50     	; 0x1a08 <__stack+0x1509>
    19d6:	86 e0       	ldi	r24, 0x06	; 6
    19d8:	e8 16       	cp	r14, r24
    19da:	f1 04       	cpc	r15, r1
    19dc:	a9 f0       	breq	.+42     	; 0x1a08 <__stack+0x1509>
    19de:	e6 30       	cpi	r30, 0x06	; 6
    19e0:	f1 05       	cpc	r31, r1
    19e2:	91 f0       	breq	.+36     	; 0x1a08 <__stack+0x1509>
    19e4:	66 30       	cpi	r22, 0x06	; 6
    19e6:	71 05       	cpc	r23, r1
    19e8:	79 f0       	breq	.+30     	; 0x1a08 <__stack+0x1509>
    19ea:	46 30       	cpi	r20, 0x06	; 6
    19ec:	51 05       	cpc	r21, r1
    19ee:	61 f0       	breq	.+24     	; 0x1a08 <__stack+0x1509>
    19f0:	80 91 64 01 	lds	r24, 0x0164	; 0x800164 <L1>
    19f4:	90 91 65 01 	lds	r25, 0x0165	; 0x800165 <L1+0x1>
    19f8:	06 97       	sbiw	r24, 0x06	; 6
    19fa:	31 f0       	breq	.+12     	; 0x1a08 <__stack+0x1509>
    19fc:	80 91 62 01 	lds	r24, 0x0162	; 0x800162 <L2>
    1a00:	90 91 63 01 	lds	r25, 0x0163	; 0x800163 <L2+0x1>
    1a04:	06 97       	sbiw	r24, 0x06	; 6
    1a06:	49 f4       	brne	.+18     	; 0x1a1a <__stack+0x151b>
Z:\Projects\PS1\PSX-Controller-DB-15-Adapter\Code\Psx_To_DB-15_REMAP_AF/Psx_To_DB-15_REMAP_AF.ino:348
  outputb |= 16;
    1a08:	80 91 74 01 	lds	r24, 0x0174	; 0x800174 <outputb>
    1a0c:	90 91 75 01 	lds	r25, 0x0175	; 0x800175 <outputb+0x1>
    1a10:	80 61       	ori	r24, 0x10	; 16
    1a12:	90 93 75 01 	sts	0x0175, r25	; 0x800175 <outputb+0x1>
    1a16:	80 93 74 01 	sts	0x0174, r24	; 0x800174 <outputb>
Z:\Projects\PS1\PSX-Controller-DB-15-Adapter\Code\Psx_To_DB-15_REMAP_AF/Psx_To_DB-15_REMAP_AF.ino:349
if (X == 5 || SQ == 5 || TR == 5 || R1 == 5 || O == 5 || R2 == 5 || L1 == 5 || L2 == 5) 
    1a1a:	45 30       	cpi	r20, 0x05	; 5
    1a1c:	51 05       	cpc	r21, r1
    1a1e:	e1 f0       	breq	.+56     	; 0x1a58 <__stack+0x1559>
    1a20:	a5 30       	cpi	r26, 0x05	; 5
    1a22:	b1 05       	cpc	r27, r1
    1a24:	c9 f0       	breq	.+50     	; 0x1a58 <__stack+0x1559>
    1a26:	95 e0       	ldi	r25, 0x05	; 5
    1a28:	e9 16       	cp	r14, r25
    1a2a:	f1 04       	cpc	r15, r1
    1a2c:	a9 f0       	breq	.+42     	; 0x1a58 <__stack+0x1559>
    1a2e:	e5 30       	cpi	r30, 0x05	; 5
    1a30:	f1 05       	cpc	r31, r1
    1a32:	91 f0       	breq	.+36     	; 0x1a58 <__stack+0x1559>
    1a34:	65 30       	cpi	r22, 0x05	; 5
    1a36:	71 05       	cpc	r23, r1
    1a38:	79 f0       	breq	.+30     	; 0x1a58 <__stack+0x1559>
    1a3a:	25 30       	cpi	r18, 0x05	; 5
    1a3c:	31 05       	cpc	r19, r1
    1a3e:	61 f0       	breq	.+24     	; 0x1a58 <__stack+0x1559>
    1a40:	80 91 64 01 	lds	r24, 0x0164	; 0x800164 <L1>
    1a44:	90 91 65 01 	lds	r25, 0x0165	; 0x800165 <L1+0x1>
    1a48:	05 97       	sbiw	r24, 0x05	; 5
    1a4a:	31 f0       	breq	.+12     	; 0x1a58 <__stack+0x1559>
    1a4c:	80 91 62 01 	lds	r24, 0x0162	; 0x800162 <L2>
    1a50:	90 91 63 01 	lds	r25, 0x0163	; 0x800163 <L2+0x1>
    1a54:	05 97       	sbiw	r24, 0x05	; 5
    1a56:	49 f4       	brne	.+18     	; 0x1a6a <__stack+0x156b>
Z:\Projects\PS1\PSX-Controller-DB-15-Adapter\Code\Psx_To_DB-15_REMAP_AF/Psx_To_DB-15_REMAP_AF.ino:350
  outputb |= 32;                   
    1a58:	80 91 74 01 	lds	r24, 0x0174	; 0x800174 <outputb>
    1a5c:	90 91 75 01 	lds	r25, 0x0175	; 0x800175 <outputb+0x1>
    1a60:	80 62       	ori	r24, 0x20	; 32
    1a62:	90 93 75 01 	sts	0x0175, r25	; 0x800175 <outputb+0x1>
    1a66:	80 93 74 01 	sts	0x0174, r24	; 0x800174 <outputb>
Z:\Projects\PS1\PSX-Controller-DB-15-Adapter\Code\Psx_To_DB-15_REMAP_AF/Psx_To_DB-15_REMAP_AF.ino:351
if (SL == 1)
    1a6a:	80 91 5e 01 	lds	r24, 0x015E	; 0x80015e <SL>
    1a6e:	90 91 5f 01 	lds	r25, 0x015F	; 0x80015f <SL+0x1>
    1a72:	01 97       	sbiw	r24, 0x01	; 1
    1a74:	49 f4       	brne	.+18     	; 0x1a88 <__stack+0x1589>
Z:\Projects\PS1\PSX-Controller-DB-15-Adapter\Code\Psx_To_DB-15_REMAP_AF/Psx_To_DB-15_REMAP_AF.ino:352
  outputd |= 4;
    1a76:	80 91 72 01 	lds	r24, 0x0172	; 0x800172 <outputd>
    1a7a:	90 91 73 01 	lds	r25, 0x0173	; 0x800173 <outputd+0x1>
    1a7e:	84 60       	ori	r24, 0x04	; 4
    1a80:	90 93 73 01 	sts	0x0173, r25	; 0x800173 <outputd+0x1>
    1a84:	80 93 72 01 	sts	0x0172, r24	; 0x800172 <outputd>
Z:\Projects\PS1\PSX-Controller-DB-15-Adapter\Code\Psx_To_DB-15_REMAP_AF/Psx_To_DB-15_REMAP_AF.ino:353
if (TR == 1 || SQ == 1 || R1 == 1 || O == 1 || X == 1 || R2 == 1 || L1 == 1 || L2 == 1) 
    1a88:	ea 94       	dec	r14
    1a8a:	ef 28       	or	r14, r15
    1a8c:	d1 f0       	breq	.+52     	; 0x1ac2 <__stack+0x15c3>
    1a8e:	11 97       	sbiw	r26, 0x01	; 1
    1a90:	c1 f0       	breq	.+48     	; 0x1ac2 <__stack+0x15c3>
    1a92:	31 97       	sbiw	r30, 0x01	; 1
    1a94:	b1 f0       	breq	.+44     	; 0x1ac2 <__stack+0x15c3>
    1a96:	61 30       	cpi	r22, 0x01	; 1
    1a98:	71 05       	cpc	r23, r1
    1a9a:	99 f0       	breq	.+38     	; 0x1ac2 <__stack+0x15c3>
    1a9c:	41 30       	cpi	r20, 0x01	; 1
    1a9e:	51 05       	cpc	r21, r1
    1aa0:	81 f0       	breq	.+32     	; 0x1ac2 <__stack+0x15c3>
    1aa2:	21 30       	cpi	r18, 0x01	; 1
    1aa4:	31 05       	cpc	r19, r1
    1aa6:	69 f0       	breq	.+26     	; 0x1ac2 <__stack+0x15c3>
    1aa8:	80 91 64 01 	lds	r24, 0x0164	; 0x800164 <L1>
    1aac:	90 91 65 01 	lds	r25, 0x0165	; 0x800165 <L1+0x1>
    1ab0:	01 97       	sbiw	r24, 0x01	; 1
    1ab2:	39 f0       	breq	.+14     	; 0x1ac2 <__stack+0x15c3>
    1ab4:	80 91 62 01 	lds	r24, 0x0162	; 0x800162 <L2>
    1ab8:	90 91 63 01 	lds	r25, 0x0163	; 0x800163 <L2+0x1>
    1abc:	01 97       	sbiw	r24, 0x01	; 1
    1abe:	09 f0       	breq	.+2      	; 0x1ac2 <__stack+0x15c3>
    1ac0:	09 c9       	rjmp	.-3566   	; 0xcd4 <__stack+0x7d5>
Z:\Projects\PS1\PSX-Controller-DB-15-Adapter\Code\Psx_To_DB-15_REMAP_AF/Psx_To_DB-15_REMAP_AF.ino:354
  outputd |= 128;     
    1ac2:	80 91 72 01 	lds	r24, 0x0172	; 0x800172 <outputd>
    1ac6:	90 91 73 01 	lds	r25, 0x0173	; 0x800173 <outputd+0x1>
    1aca:	80 68       	ori	r24, 0x80	; 128
    1acc:	90 93 73 01 	sts	0x0173, r25	; 0x800173 <outputd+0x1>
    1ad0:	80 93 72 01 	sts	0x0172, r24	; 0x800172 <outputd>
    1ad4:	ff c8       	rjmp	.-3586   	; 0xcd4 <__stack+0x7d5>
setautofire():
Z:\Projects\PS1\PSX-Controller-DB-15-Adapter\Code\Psx_To_DB-15_REMAP_AF/Psx_To_DB-15_REMAP_AF.ino:222
    R1 = 0;     
  }
if ((L1A == 1 && autofiretimer1 < 1) || (L1A == 2 && autofiretimer2 < 2) || (L1A == 3 && autofiretimer3 < 2) || (L1A == 4 && autofiretimer4 < 3) || (L1A == 5 && autofiretimer5 < 4) || (L1A == 6 && autofiretimer6 < 5)){
    L1 = 0;     
  }
if ((L2A == 1 && autofiretimer1 < 1) || (L2A == 2 && autofiretimer2 < 2) || (L2A == 3 && autofiretimer3 < 2) || (L2A == 4 && autofiretimer4 < 3) || (L2A == 5 && autofiretimer5 < 4) || (L2A == 6 && autofiretimer6 < 5)){
    1ad6:	23 30       	cpi	r18, 0x03	; 3
    1ad8:	31 05       	cpc	r19, r1
    1ada:	29 f4       	brne	.+10     	; 0x1ae6 <__stack+0x15e7>
    1adc:	20 91 58 01 	lds	r18, 0x0158	; 0x800158 <autofiretimer3>
    1ae0:	30 91 59 01 	lds	r19, 0x0159	; 0x800159 <autofiretimer3+0x1>
    1ae4:	c5 ce       	rjmp	.-630    	; 0x1870 <__stack+0x1371>
    1ae6:	24 30       	cpi	r18, 0x04	; 4
    1ae8:	31 05       	cpc	r19, r1
    1aea:	49 f4       	brne	.+18     	; 0x1afe <__stack+0x15ff>
    1aec:	20 91 56 01 	lds	r18, 0x0156	; 0x800156 <autofiretimer4>
    1af0:	30 91 57 01 	lds	r19, 0x0157	; 0x800157 <autofiretimer4+0x1>
    1af4:	23 30       	cpi	r18, 0x03	; 3
    1af6:	31 05       	cpc	r19, r1
    1af8:	0c f4       	brge	.+2      	; 0x1afc <__stack+0x15fd>
    1afa:	82 ce       	rjmp	.-764    	; 0x1800 <__stack+0x1301>
    1afc:	bc ce       	rjmp	.-648    	; 0x1876 <__stack+0x1377>
    1afe:	25 30       	cpi	r18, 0x05	; 5
    1b00:	31 05       	cpc	r19, r1
    1b02:	49 f4       	brne	.+18     	; 0x1b16 <__stack+0x1617>
    1b04:	20 91 54 01 	lds	r18, 0x0154	; 0x800154 <autofiretimer5>
    1b08:	30 91 55 01 	lds	r19, 0x0155	; 0x800155 <autofiretimer5+0x1>
    1b0c:	24 30       	cpi	r18, 0x04	; 4
    1b0e:	31 05       	cpc	r19, r1
    1b10:	0c f4       	brge	.+2      	; 0x1b14 <__stack+0x1615>
    1b12:	76 ce       	rjmp	.-788    	; 0x1800 <__stack+0x1301>
    1b14:	b0 ce       	rjmp	.-672    	; 0x1876 <__stack+0x1377>
    1b16:	26 30       	cpi	r18, 0x06	; 6
    1b18:	31 05       	cpc	r19, r1
    1b1a:	09 f0       	breq	.+2      	; 0x1b1e <__stack+0x161f>
    1b1c:	ac ce       	rjmp	.-680    	; 0x1876 <__stack+0x1377>
    1b1e:	20 91 52 01 	lds	r18, 0x0152	; 0x800152 <autofiretimer6>
    1b22:	30 91 53 01 	lds	r19, 0x0153	; 0x800153 <autofiretimer6+0x1>
    1b26:	25 30       	cpi	r18, 0x05	; 5
    1b28:	31 05       	cpc	r19, r1
    1b2a:	0c f4       	brge	.+2      	; 0x1b2e <__stack+0x162f>
    1b2c:	69 ce       	rjmp	.-814    	; 0x1800 <__stack+0x1301>
    1b2e:	a3 ce       	rjmp	.-698    	; 0x1876 <__stack+0x1377>

00001b30 <eeprom_read_byte>:
eeprom_read_byte():
    1b30:	f9 99       	sbic	0x1f, 1	; 31
    1b32:	fe cf       	rjmp	.-4      	; 0x1b30 <eeprom_read_byte>
    1b34:	92 bd       	out	0x22, r25	; 34
    1b36:	81 bd       	out	0x21, r24	; 33
    1b38:	f8 9a       	sbi	0x1f, 0	; 31
    1b3a:	99 27       	eor	r25, r25
    1b3c:	80 b5       	in	r24, 0x20	; 32
    1b3e:	08 95       	ret

00001b40 <eeprom_write_byte>:
eeprom_write_byte():
    1b40:	26 2f       	mov	r18, r22

00001b42 <eeprom_write_r18>:
    1b42:	f9 99       	sbic	0x1f, 1	; 31
    1b44:	fe cf       	rjmp	.-4      	; 0x1b42 <eeprom_write_r18>
    1b46:	1f ba       	out	0x1f, r1	; 31
    1b48:	92 bd       	out	0x22, r25	; 34
    1b4a:	81 bd       	out	0x21, r24	; 33
    1b4c:	20 bd       	out	0x20, r18	; 32
    1b4e:	0f b6       	in	r0, 0x3f	; 63
    1b50:	f8 94       	cli
    1b52:	fa 9a       	sbi	0x1f, 2	; 31
    1b54:	f9 9a       	sbi	0x1f, 1	; 31
    1b56:	0f be       	out	0x3f, r0	; 63
    1b58:	01 96       	adiw	r24, 0x01	; 1
    1b5a:	08 95       	ret

00001b5c <_exit>:
exit():
/home/jenkins-mingw32/workspace/avr-gcc-staging/label/Ubuntu14.04x64-mingw32/gcc-build/avr/avr4/libgcc/../../../../gcc/libgcc/config/avr/lib1funcs.S:2278
    1b5c:	f8 94       	cli

00001b5e <__stop_program>:
__stop_program():
/home/jenkins-mingw32/workspace/avr-gcc-staging/label/Ubuntu14.04x64-mingw32/gcc-build/avr/avr4/libgcc/../../../../gcc/libgcc/config/avr/lib1funcs.S:2280
    1b5e:	ff cf       	rjmp	.-2      	; 0x1b5e <__stop_program>
